

Microchip MPLAB XC8 Assembler V2.40 build 20220703182018 
                                                                                               Mon Feb 17 20:40:40 2025

Microchip MPLAB XC8 C Compiler v2.40 (Free license) build 20220703182018 Og1 
     1                           	processor	18F25K80
     2                           	fnconf	rparam,??,?,0
     3                           	pagewidth 120
     4                           	opt	flic
     5                           	psect	nvCOMRAM,global,class=COMRAM,space=1,delta=1,lowdata,noexec
     6                           	psect	nvBANK0,global,class=BANK0,space=1,delta=1,lowdata,noexec
     7                           	psect	smallconst,global,reloc=2,class=SMALLCONST,delta=1,noexec
     8                           	psect	cinit,global,reloc=2,class=CODE,delta=1
     9                           	psect	bssCOMRAM,global,class=COMRAM,space=1,delta=1,lowdata,noexec
    10                           	psect	bssBANK0,global,class=BANK0,space=1,delta=1,lowdata,noexec
    11                           	psect	cstackBANK0,global,class=BANK0,space=1,delta=1,lowdata,noexec
    12                           	psect	cstackCOMRAM,global,class=COMRAM,space=1,delta=1,lowdata,noexec
    13                           	psect	text0,global,reloc=2,class=CODE,delta=1
    14                           	psect	text1,global,reloc=2,class=CODE,delta=1
    15                           	psect	text2,global,reloc=2,class=CODE,delta=1
    16                           	psect	text3,global,reloc=2,class=CODE,delta=1,group=2
    17                           	psect	text4,global,reloc=2,class=CODE,delta=1,group=2
    18                           	psect	text5,global,reloc=2,class=CODE,delta=1,group=2
    19                           	psect	text6,global,reloc=2,class=CODE,delta=1,group=3
    20                           	psect	text7,global,reloc=2,class=CODE,delta=1,group=1
    21                           	psect	text8,global,reloc=2,class=CODE,delta=1,group=1
    22                           	psect	text9,global,reloc=2,class=CODE,delta=1,group=3
    23                           	psect	text10,global,reloc=2,class=CODE,delta=1
    24                           	psect	text11,global,reloc=2,class=CODE,delta=1
    25                           	psect	text12,global,reloc=2,class=CODE,delta=1
    26                           	psect	text13,global,reloc=2,class=CODE,delta=1
    27                           	psect	text14,global,reloc=2,class=CODE,delta=1
    28                           	psect	text15,global,reloc=2,class=CODE,delta=1
    29                           	psect	text16,global,reloc=2,class=CODE,delta=1
    30                           	psect	text17,global,reloc=2,class=CODE,delta=1
    31                           	psect	text18,global,reloc=2,class=CODE,delta=1
    32                           	psect	text19,global,reloc=2,class=CODE,delta=1
    33                           	psect	text20,global,reloc=2,class=CODE,delta=1
    34                           	psect	text21,global,reloc=2,class=CODE,delta=1
    35                           	psect	text22,global,reloc=2,class=CODE,delta=1
    36                           	psect	text23,global,reloc=2,class=CODE,delta=1
    37                           	psect	text24,global,reloc=2,class=CODE,delta=1
    38                           	psect	text25,global,reloc=2,class=CODE,delta=1
    39                           	psect	text26,global,reloc=2,class=CODE,delta=1
    40                           	psect	intcode,global,reloc=2,class=CODE,delta=1
    41                           	psect	text28,global,reloc=2,class=CODE,delta=1
    42                           	psect	text29,global,reloc=2,class=CODE,delta=1
    43                           	psect	text30,global,reloc=2,class=CODE,delta=1
    44                           	psect	text31,global,reloc=2,class=CODE,delta=1
    45                           	psect	text32,global,reloc=2,class=CODE,delta=1
    46                           	psect	text33,global,reloc=2,class=CODE,delta=1
    47                           	psect	intsave_regs,global,class=BIGRAM,space=1,delta=1,noexec
    48                           	psect	text34,global,reloc=2,class=CODE,delta=1
    49                           	psect	rparam,global,class=COMRAM,space=1,delta=1,noexec
    50                           	psect	temp,global,ovrld,common,class=COMRAM,space=1,delta=1
    51                           	psect	config,global,abs,ovrld,class=CONFIG,space=4,delta=1,noexec
    52   000000                     
    53                           ; Version 2.40
    54                           ; Generated 04/07/2022 GMT
    55                           ; 
    56                           ; Copyright © 2022, Microchip Technology Inc. and its subsidiaries ("Microchip")
    57                           ; All rights reserved.
    58                           ; 
    59                           ; This software is developed by Microchip Technology Inc. and its subsidiaries ("Microch
      +                          ip").
    60                           ; 
    61                           ; Redistribution and use in source and binary forms, with or without modification, are
    62                           ; permitted provided that the following conditions are met:
    63                           ; 
    64                           ;     1. Redistributions of source code must retain the above copyright notice, this lis
      +                          t of
    65                           ;        conditions and the following disclaimer.
    66                           ; 
    67                           ;     2. Redistributions in binary form must reproduce the above copyright notice, this 
      +                          list
    68                           ;        of conditions and the following disclaimer in the documentation and/or other
    69                           ;        materials provided with the distribution. Publication is not required when
    70                           ;        this file is used in an embedded application.
    71                           ; 
    72                           ;     3. Microchip's name may not be used to endorse or promote products derived from th
      +                          is
    73                           ;        software without specific prior written permission.
    74                           ; 
    75                           ; THIS SOFTWARE IS PROVIDED BY MICROCHIP "AS IS" AND ANY EXPRESS OR IMPLIED WARRANTIES,
    76                           ; INCLUDING, BUT NOT LIMITED TO, THE IMPLIED WARRANTIES OF MERCHANTABILITY AND FITNESS F
      +                          OR
    77                           ; PURPOSE ARE DISCLAIMED.  IN NO EVENT SHALL MICROCHIP BE LIABLE FOR ANY DIRECT, INDIREC
      +                          T,
    78                           ; INCIDENTAL, SPECIAL, EXEMPLARY, OR CONSEQUENTIAL DAMAGES (INCLUDING BUT NOT LIMITED TO
    79                           ; PROCUREMENT OF SUBSTITUTE GOODS OR SERVICES; LOSS OF USE, DATA OR PROFITS; OR BUSINESS
    80                           ; INTERRUPTION) HOWSOEVER CAUSED AND ON ANY THEORY OF LIABILITY, WHETHER IN CONTRACT, ST
      +                          RICT
    81                           ; LIABILITY, OR TORT (INCLUDING NEGLIGENCE OR OTHERWISE) ARISING IN ANY WAY OUT OF THE U
      +                          SE OF
    82                           ; THIS SOFTWARE, EVEN IF ADVISED OF THE POSSIBILITY OF SUCH DAMAGE.
    83                           ; 
    84                           ; 
    85                           ; Code-generator required, PIC18F25K80 Definitions
    86                           ; 
    87                           ; SFR Addresses
    88   000000                     _RCREG1	set	4014
    89   000000                     _TXREG1	set	4013
    90   000000                     _SPBRG1	set	4015
    91   000000                     _TXSTA1	set	4012
    92                           
    93                           	psect	nvCOMRAM
    94   000052                     __pnvCOMRAM:
    95                           	callstack 0
    96   000052                     _EUSART1_FramingErrorHandler:
    97                           	callstack 0
    98   000052                     	ds	2
    99   000054                     _EUSART1_RxDefaultInterruptHandler:
   100                           	callstack 0
   101   000054                     	ds	2
   102   000056                     _EUSART1_TxDefaultInterruptHandler:
   103                           	callstack 0
   104   000056                     	ds	2
   105   000058                     _eusart1TxBufferRemaining:
   106                           	callstack 0
   107   000058                     	ds	1
   108                           
   109                           	psect	nvBANK0
   110   00009D                     __pnvBANK0:
   111                           	callstack 0
   112   00009D                     _EUSART1_ErrorHandler:
   113                           	callstack 0
   114   00009D                     	ds	2
   115   00009F                     _EUSART1_OverrunErrorHandler:
   116                           	callstack 0
   117   00009F                     	ds	2
   118   000000                     _T2CONbits	set	4042
   119   000000                     _RCSTA1bits	set	4011
   120   000000                     _TXSTA1bits	set	4012
   121   000000                     _CCP2CON	set	3920
   122   000000                     _WPUB	set	3931
   123   000000                     _ANCON1	set	3932
   124   000000                     _ANCON0	set	3933
   125   000000                     _LATA	set	3977
   126   000000                     _TRISA	set	3986
   127   000000                     _LATC	set	3979
   128   000000                     _LATB	set	3978
   129   000000                     _CCPTMRSbits	set	3993
   130   000000                     _REFOCON	set	3994
   131   000000                     _OSCTUNE	set	3995
   132   000000                     _OSCCON2	set	4050
   133   000000                     _OSCCON	set	4051
   134   000000                     _INTCON2bits	set	4081
   135   000000                     _TRISC	set	3988
   136   000000                     _TRISB	set	3987
   137   000000                     _SPBRGH1	set	3965
   138   000000                     _INTCONbits	set	4082
   139   000000                     _PIE1bits	set	3997
   140   000000                     _RCONbits	set	4048
   141   000000                     _BAUDCON1	set	4007
   142   000000                     _PIR1bits	set	3998
   143   000000                     _RCSTA1	set	4011
   144   000000                     _T2CON	set	4042
   145   000000                     _PR2	set	4043
   146   000000                     _TMR2	set	4044
   147   000000                     _CCPR2H	set	3922
   148   000000                     _CCPR2L	set	3921
   149                           
   150                           	psect	smallconst
   151   001000                     __psmallconst:
   152                           	callstack 0
   153   001000  00                 	db	0
   154   001001                     STR_1:
   155   001001  20                 	db	32
   156   001002  76                 	db	118	;'v'
   157   001003  65                 	db	101	;'e'
   158   001004  75                 	db	117	;'u'
   159   001005  74                 	db	116	;'t'
   160   001006  20                 	db	32
   161   001007  74                 	db	116	;'t'
   162   001008  75                 	db	117	;'u'
   163   001009  20                 	db	32
   164   00100A  62                 	db	98	;'b'
   165   00100B  61                 	db	97	;'a'
   166   00100C  72                 	db	114	;'r'
   167   00100D  72                 	db	114	;'r'
   168   00100E  65                 	db	101	;'e'
   169   00100F  72                 	db	114	;'r'
   170   001010  20                 	db	32
   171   001011  6F                 	db	111	;'o'
   172   001012  75                 	db	117	;'u'
   173   001013  20                 	db	32
   174   001014  64                 	db	100	;'d'
   175   001015  65                 	db	101	;'e'
   176   001016  62                 	db	98	;'b'
   177   001017  61                 	db	97	;'a'
   178   001018  72                 	db	114	;'r'
   179   001019  72                 	db	114	;'r'
   180   00101A  65                 	db	101	;'e'
   181   00101B  72                 	db	114	;'r'
   182   00101C  20                 	db	32
   183   00101D  6C                 	db	108	;'l'
   184   00101E  61                 	db	97	;'a'
   185   00101F  20                 	db	32
   186   001020  70                 	db	112	;'p'
   187   001021  6F                 	db	111	;'o'
   188   001022  72                 	db	114	;'r'
   189   001023  74                 	db	116	;'t'
   190   001024  65                 	db	101	;'e'
   191   001025  2E                 	db	46
   192   001026  00                 	db	0
   193   001027  00                 	db	0	; dummy byte at the end
   194   000000                     
   195                           ; #config settings
   196                           
   197                           	psect	cinit
   198   001E92                     __pcinit:
   199                           	callstack 0
   200   001E92                     start_initialization:
   201                           	callstack 0
   202   001E92                     __initialization:
   203                           	callstack 0
   204                           
   205                           ; Clear objects allocated to BANK0 (56 bytes)
   206   001E92  EE00  F060         	lfsr	0,__pbssBANK0
   207   001E96  0E38               	movlw	56
   208   001E98                     clear_0:
   209   001E98  6AEE               	clrf	postinc0,c
   210   001E9A  06E8               	decf	wreg,f,c
   211   001E9C  E1FD               	bnz	clear_0
   212                           
   213                           ; Clear objects allocated to COMRAM (11 bytes)
   214   001E9E  EE00  F047         	lfsr	0,__pbssCOMRAM
   215   001EA2  0E0B               	movlw	11
   216   001EA4                     clear_1:
   217   001EA4  6AEE               	clrf	postinc0,c
   218   001EA6  06E8               	decf	wreg,f,c
   219   001EA8  E1FD               	bnz	clear_1
   220   001EAA                     end_of_initialization:
   221                           	callstack 0
   222   001EAA                     __end_of__initialization:
   223                           	callstack 0
   224   001EAA  9059               	bcf	int$flags,0,c	;clear compiler interrupt flag (level 1)
   225   001EAC  9259               	bcf	int$flags,1,c	;clear compiler interrupt flag (level 2)
   226   001EAE  0E00               	movlw	low (__Lmediumconst shr (0+16))
   227   001EB0  6EF8               	movwf	tblptru,c
   228   001EB2  0100               	movlb	0
   229   001EB4  EF79  F00C         	goto	_main	;jump to C main() function
   230                           
   231                           	psect	bssCOMRAM
   232   000047                     __pbssCOMRAM:
   233                           	callstack 0
   234   000047                     _width:
   235                           	callstack 0
   236   000047                     	ds	2
   237   000049                     _prec:
   238                           	callstack 0
   239   000049                     	ds	2
   240   00004B                     _flags:
   241                           	callstack 0
   242   00004B                     	ds	1
   243   00004C                     _eusart1RxLastError:
   244                           	callstack 0
   245   00004C                     	ds	1
   246   00004D                     _eusart1RxCount:
   247                           	callstack 0
   248   00004D                     	ds	1
   249   00004E                     _eusart1RxTail:
   250                           	callstack 0
   251   00004E                     	ds	1
   252   00004F                     _eusart1RxHead:
   253                           	callstack 0
   254   00004F                     	ds	1
   255   000050                     _eusart1TxTail:
   256                           	callstack 0
   257   000050                     	ds	1
   258   000051                     _eusart1TxHead:
   259                           	callstack 0
   260   000051                     	ds	1
   261                           
   262                           	psect	bssBANK0
   263   000060                     __pbssBANK0:
   264                           	callstack 0
   265   000060                     	ds	32
   266   000080                     _eusart1RxStatusBuffer:
   267                           	callstack 0
   268   000080                     	ds	8
   269   000088                     _eusart1RxBuffer:
   270                           	callstack 0
   271   000088                     	ds	8
   272   000090                     _eusart1TxBuffer:
   273                           	callstack 0
   274   000090                     	ds	8
   275                           
   276                           	psect	cstackBANK0
   277   000098                     __pcstackBANK0:
   278                           	callstack 0
   279   000098                     main@vitesse:
   280                           	callstack 0
   281                           
   282                           ; 4 bytes @ 0x0
   283   000098                     	ds	4
   284   00009C                     main@lire:
   285                           	callstack 0
   286                           
   287                           ; 1 bytes @ 0x4
   288   00009C                     	ds	1
   289                           
   290                           	psect	cstackCOMRAM
   291   000001                     __pcstackCOMRAM:
   292                           	callstack 0
   293   000001                     ??_INTERRUPT_InterruptManager:
   294   000001                     
   295                           ; 1 bytes @ 0x0
   296   000001                     	ds	4
   297   000005                     ?___fldiv:
   298                           	callstack 0
   299   000005                     ?___fltol:
   300                           	callstack 0
   301   000005                     EUSART1_Read@readValue:
   302                           	callstack 0
   303   000005                     EUSART1_Write@txData:
   304                           	callstack 0
   305   000005                     EUSART1_SetFramingErrorHandler@interruptHandler:
   306                           	callstack 0
   307   000005                     EUSART1_SetOverrunErrorHandler@interruptHandler:
   308                           	callstack 0
   309   000005                     EUSART1_SetErrorHandler@interruptHandler:
   310                           	callstack 0
   311   000005                     EUSART1_SetTxInterruptHandler@interruptHandler:
   312                           	callstack 0
   313   000005                     EUSART1_SetRxInterruptHandler@interruptHandler:
   314                           	callstack 0
   315   000005                     ___fltol@f1:
   316                           	callstack 0
   317   000005                     ___fldiv@b:
   318                           	callstack 0
   319                           
   320                           ; 4 bytes @ 0x4
   321   000005                     	ds	1
   322   000006                     putch@txData:
   323                           	callstack 0
   324                           
   325                           ; 1 bytes @ 0x5
   326   000006                     	ds	1
   327   000007                     fputc@c:
   328                           	callstack 0
   329                           
   330                           ; 2 bytes @ 0x6
   331   000007                     	ds	2
   332   000009                     ??___fltol:
   333   000009                     fputc@fp:
   334                           	callstack 0
   335   000009                     ___fldiv@a:
   336                           	callstack 0
   337                           
   338                           ; 4 bytes @ 0x8
   339   000009                     	ds	2
   340   00000B                     ??_fputc:
   341                           
   342                           ; 1 bytes @ 0xA
   343   00000B                     	ds	2
   344   00000D                     ??___fldiv:
   345   00000D                     ___fltol@sign1:
   346                           	callstack 0
   347                           
   348                           ; 1 bytes @ 0xC
   349   00000D                     	ds	1
   350   00000E                     ___fltol@exp1:
   351                           	callstack 0
   352                           
   353                           ; 1 bytes @ 0xD
   354   00000E                     	ds	2
   355   000010                     vfpfcnvrt@fp:
   356                           	callstack 0
   357                           
   358                           ; 2 bytes @ 0xF
   359   000010                     	ds	1
   360   000011                     ___fldiv@rem:
   361                           	callstack 0
   362                           
   363                           ; 4 bytes @ 0x10
   364   000011                     	ds	1
   365   000012                     vfpfcnvrt@fmt:
   366                           	callstack 0
   367                           
   368                           ; 2 bytes @ 0x11
   369   000012                     	ds	2
   370   000014                     vfpfcnvrt@ap:
   371                           	callstack 0
   372                           
   373                           ; 2 bytes @ 0x13
   374   000014                     	ds	1
   375   000015                     ___fldiv@sign:
   376                           	callstack 0
   377                           
   378                           ; 1 bytes @ 0x14
   379   000015                     	ds	1
   380   000016                     ?_vfprintf:
   381                           	callstack 0
   382   000016                     ___fldiv@new_exp:
   383                           	callstack 0
   384   000016                     vfprintf@fp:
   385                           	callstack 0
   386                           
   387                           ; 2 bytes @ 0x15
   388   000016                     	ds	2
   389   000018                     vfprintf@fmt:
   390                           	callstack 0
   391   000018                     ___fldiv@grs:
   392                           	callstack 0
   393                           
   394                           ; 4 bytes @ 0x17
   395   000018                     	ds	2
   396   00001A                     vfprintf@ap:
   397                           	callstack 0
   398                           
   399                           ; 2 bytes @ 0x19
   400   00001A                     	ds	2
   401   00001C                     ___fldiv@bexp:
   402                           	callstack 0
   403   00001C                     vfprintf@cfmt:
   404                           	callstack 0
   405                           
   406                           ; 2 bytes @ 0x1B
   407   00001C                     	ds	1
   408   00001D                     ___fldiv@aexp:
   409                           	callstack 0
   410                           
   411                           ; 1 bytes @ 0x1C
   412   00001D                     	ds	1
   413   00001E                     ?_printf:
   414                           	callstack 0
   415   00001E                     ?___flmul:
   416                           	callstack 0
   417   00001E                     printf@fmt:
   418                           	callstack 0
   419   00001E                     ___flmul@b:
   420                           	callstack 0
   421                           
   422                           ; 4 bytes @ 0x1D
   423   00001E                     	ds	2
   424   000020                     printf@ap:
   425                           	callstack 0
   426                           
   427                           ; 2 bytes @ 0x1F
   428   000020                     	ds	2
   429   000022                     ___flmul@a:
   430                           	callstack 0
   431                           
   432                           ; 4 bytes @ 0x21
   433   000022                     	ds	4
   434   000026                     ??___flmul:
   435                           
   436                           ; 1 bytes @ 0x25
   437   000026                     	ds	4
   438   00002A                     ___flmul@sign:
   439                           	callstack 0
   440                           
   441                           ; 1 bytes @ 0x29
   442   00002A                     	ds	1
   443   00002B                     ___flmul@aexp:
   444                           	callstack 0
   445                           
   446                           ; 1 bytes @ 0x2A
   447   00002B                     	ds	1
   448   00002C                     ___flmul@grs:
   449                           	callstack 0
   450                           
   451                           ; 4 bytes @ 0x2B
   452   00002C                     	ds	4
   453   000030                     ___flmul@bexp:
   454                           	callstack 0
   455                           
   456                           ; 1 bytes @ 0x2F
   457   000030                     	ds	1
   458   000031                     ___flmul@prod:
   459                           	callstack 0
   460                           
   461                           ; 4 bytes @ 0x30
   462   000031                     	ds	4
   463   000035                     ___flmul@temp:
   464                           	callstack 0
   465                           
   466                           ; 2 bytes @ 0x34
   467   000035                     	ds	2
   468   000037                     ?_trouver_CPPR:
   469                           	callstack 0
   470   000037                     trouver_CPPR@duty:
   471                           	callstack 0
   472                           
   473                           ; 4 bytes @ 0x36
   474   000037                     	ds	4
   475   00003B                     trouver_CPPR@ccpr:
   476                           	callstack 0
   477                           
   478                           ; 4 bytes @ 0x3A
   479   00003B                     	ds	4
   480   00003F                     _trouver_CPPR$1631:
   481                           	callstack 0
   482                           
   483                           ; 4 bytes @ 0x3E
   484   00003F                     	ds	4
   485   000043                     PWM2_LoadDutyValue@dutyValue:
   486                           	callstack 0
   487                           
   488                           ; 2 bytes @ 0x42
   489   000043                     	ds	2
   490   000045                     ??_PWM2_LoadDutyValue:
   491                           
   492                           ; 1 bytes @ 0x44
   493   000045                     	ds	2
   494   000047                     
   495                           ; 1 bytes @ 0x46
   496 ;;
   497 ;;Main: autosize = 0, tempsize = 0, incstack = 0, save=0
   498 ;;
   499 ;; *************** function _main *****************
   500 ;; Defined at:
   501 ;;		line 49 in file "main.c"
   502 ;; Parameters:    Size  Location     Type
   503 ;;		None
   504 ;; Auto vars:     Size  Location     Type
   505 ;;  vitesse         4    0[BANK0 ] float 
   506 ;;  lire            1    4[BANK0 ] unsigned char 
   507 ;; Return value:  Size  Location     Type
   508 ;;                  1    wreg      void 
   509 ;; Registers used:
   510 ;;		wreg, fsr1l, fsr1h, fsr2l, fsr2h, status,2, status,0, tblptrl, tblptrh, tblptru, prodl, prodh, cstack
   511 ;; Tracked objects:
   512 ;;		On entry : 0/0
   513 ;;		On exit  : 0/0
   514 ;;		Unchanged: 0/0
   515 ;; Data sizes:     COMRAM   BANK0   BANK1   BANK2   BANK3   BANK4   BANK5   BANK6   BANK7   BANK8   BANK9  BANK10  BANK1
      +1  BANK12  BANK13  BANK14
   516 ;;      Params:         0       0       0       0       0       0       0       0       0       0       0       0       
      +0       0       0       0
   517 ;;      Locals:         0       5       0       0       0       0       0       0       0       0       0       0       
      +0       0       0       0
   518 ;;      Temps:          0       0       0       0       0       0       0       0       0       0       0       0       
      +0       0       0       0
   519 ;;      Totals:         0       5       0       0       0       0       0       0       0       0       0       0       
      +0       0       0       0
   520 ;;Total ram usage:        5 bytes
   521 ;; Hardware stack levels required when called: 10
   522 ;; This function calls:
   523 ;;		_EUSART1_Read
   524 ;;		_PWM2_LoadDutyValue
   525 ;;		_SYSTEM_Initialize
   526 ;;		_ecranAllume
   527 ;;		_printf
   528 ;;		_trouver_CPPR
   529 ;;		_videecran
   530 ;; This function is called by:
   531 ;;		Startup code after reset
   532 ;; This function uses a non-reentrant model
   533 ;;
   534                           
   535                           	psect	text0
   536   0018F2                     __ptext0:
   537                           	callstack 0
   538   0018F2                     _main:
   539                           	callstack 21
   540   0018F2                     
   541                           ;main.c: 52:     SYSTEM_Initialize();
   542   0018F2  EC6F  F00F         	call	_SYSTEM_Initialize	;wreg free
   543   0018F6                     
   544                           ;main.c: 59:     (INTCONbits.GIE = 1);
   545   0018F6  8EF2               	bsf	242,7,c	;volatile
   546   0018F8                     
   547                           ;main.c: 65:     (INTCONbits.PEIE = 1);
   548   0018F8  8CF2               	bsf	242,6,c	;volatile
   549   0018FA                     
   550                           ;main.c: 69:     printf(" veut tu barrer ou debarrer la porte.");
   551   0018FA  0E01               	movlw	low STR_1
   552   0018FC  6E1E               	movwf	printf@fmt^0,c
   553   0018FE  0E10               	movlw	high STR_1
   554   001900  6E1F               	movwf	(printf@fmt+1)^0,c
   555   001902  EC5C  F00F         	call	_printf	;wreg free
   556   001906                     l2699:
   557                           
   558                           ;main.c: 71:     {;main.c: 72:         ecranAllume();
   559   001906  EC95  F00F         	call	_ecranAllume	;wreg free
   560   00190A                     
   561                           ;main.c: 73:        videecran();
   562   00190A  EC8E  F00F         	call	_videecran	;wreg free
   563   00190E                     
   564                           ;main.c: 75:         char lire =EUSART1_Read();
   565   00190E  EC98  F00E         	call	_EUSART1_Read	;wreg free
   566   001912  0100               	movlb	0	; () banked
   567   001914  6F9C               	movwf	main@lire& (0+255),b
   568   001916                     
   569                           ; BSR set to: 0
   570                           ;main.c: 76:         float vitesse=7.5;
   571   001916  0E00               	movlw	0
   572   001918  6F98               	movwf	main@vitesse& (0+255),b
   573   00191A  0E00               	movlw	0
   574   00191C  6F99               	movwf	(main@vitesse+1)& (0+255),b
   575   00191E  0EF0               	movlw	240
   576   001920  6F9A               	movwf	(main@vitesse+2)& (0+255),b
   577   001922  0E40               	movlw	64
   578   001924  6F9B               	movwf	(main@vitesse+3)& (0+255),b
   579   001926                     
   580                           ; BSR set to: 0
   581                           ;main.c: 77:         PWM2_LoadDutyValue(trouver_CPPR(vitesse));
   582   001926  C098  F037         	movff	main@vitesse,trouver_CPPR@duty
   583   00192A  C099  F038         	movff	main@vitesse+1,trouver_CPPR@duty+1
   584   00192E  C09A  F039         	movff	main@vitesse+2,trouver_CPPR@duty+2
   585   001932  C09B  F03A         	movff	main@vitesse+3,trouver_CPPR@duty+3
   586   001936  ECE1  F00C         	call	_trouver_CPPR	;wreg free
   587   00193A  C037  F043         	movff	?_trouver_CPPR,PWM2_LoadDutyValue@dutyValue
   588   00193E  C038  F044         	movff	?_trouver_CPPR+1,PWM2_LoadDutyValue@dutyValue+1
   589   001942  EC07  F00F         	call	_PWM2_LoadDutyValue	;wreg free
   590   001946                     
   591                           ;main.c: 78:         printf(" veut tu barrer ou debarrer la porte.");
   592   001946  0E01               	movlw	low STR_1
   593   001948  6E1E               	movwf	printf@fmt^0,c
   594   00194A  0E10               	movlw	high STR_1
   595   00194C  6E1F               	movwf	(printf@fmt+1)^0,c
   596   00194E  EC5C  F00F         	call	_printf	;wreg free
   597   001952                     
   598                           ;main.c: 81:             if (lire == 'L'){
   599   001952  0E4C               	movlw	76
   600   001954  0100               	movlb	0	; () banked
   601   001956  199C               	xorwf	main@lire& (0+255),w,b
   602   001958  A4D8               	btfss	status,2,c
   603   00195A  EFB1  F00C         	goto	u2191
   604   00195E  EFB3  F00C         	goto	u2190
   605   001962                     u2191:
   606   001962  EFC3  F00C         	goto	l2715
   607   001966                     u2190:
   608   001966                     
   609                           ; BSR set to: 0
   610                           ;main.c: 82:             PWM2_LoadDutyValue(trouver_CPPR(3.5));
   611   001966  0E00               	movlw	0
   612   001968  6E37               	movwf	trouver_CPPR@duty^0,c
   613   00196A  0E00               	movlw	0
   614   00196C  6E38               	movwf	(trouver_CPPR@duty+1)^0,c
   615   00196E  0E60               	movlw	96
   616   001970  6E39               	movwf	(trouver_CPPR@duty+2)^0,c
   617   001972  0E40               	movlw	64
   618   001974  6E3A               	movwf	(trouver_CPPR@duty+3)^0,c
   619   001976  ECE1  F00C         	call	_trouver_CPPR	;wreg free
   620   00197A  C037  F043         	movff	?_trouver_CPPR,PWM2_LoadDutyValue@dutyValue
   621   00197E  C038  F044         	movff	?_trouver_CPPR+1,PWM2_LoadDutyValue@dutyValue+1
   622   001982  EC07  F00F         	call	_PWM2_LoadDutyValue	;wreg free
   623   001986                     l2715:
   624                           
   625                           ;main.c: 85:             if(lire == 'U'){
   626   001986  0E55               	movlw	85
   627   001988  0100               	movlb	0	; () banked
   628   00198A  199C               	xorwf	main@lire& (0+255),w,b
   629   00198C  A4D8               	btfss	status,2,c
   630   00198E  EFCB  F00C         	goto	u2201
   631   001992  EFCD  F00C         	goto	u2200
   632   001996                     u2201:
   633   001996  EF83  F00C         	goto	l2699
   634   00199A                     u2200:
   635   00199A                     
   636                           ; BSR set to: 0
   637                           ;main.c: 86:                 PWM2_LoadDutyValue(trouver_CPPR(11.5));
   638   00199A  0E00               	movlw	0
   639   00199C  6E37               	movwf	trouver_CPPR@duty^0,c
   640   00199E  0E00               	movlw	0
   641   0019A0  6E38               	movwf	(trouver_CPPR@duty+1)^0,c
   642   0019A2  0E38               	movlw	56
   643   0019A4  6E39               	movwf	(trouver_CPPR@duty+2)^0,c
   644   0019A6  0E41               	movlw	65
   645   0019A8  6E3A               	movwf	(trouver_CPPR@duty+3)^0,c
   646   0019AA  ECE1  F00C         	call	_trouver_CPPR	;wreg free
   647   0019AE  C037  F043         	movff	?_trouver_CPPR,PWM2_LoadDutyValue@dutyValue
   648   0019B2  C038  F044         	movff	?_trouver_CPPR+1,PWM2_LoadDutyValue@dutyValue+1
   649   0019B6  EC07  F00F         	call	_PWM2_LoadDutyValue	;wreg free
   650   0019BA  EF83  F00C         	goto	l2699
   651   0019BE  EF58  F000         	goto	start
   652   0019C2                     __end_of_main:
   653                           	callstack 0
   654                           
   655 ;; *************** function _videecran *****************
   656 ;; Defined at:
   657 ;;		line 23 in file "ecran.c"
   658 ;; Parameters:    Size  Location     Type
   659 ;;		None
   660 ;; Auto vars:     Size  Location     Type
   661 ;;		None
   662 ;; Return value:  Size  Location     Type
   663 ;;                  1    wreg      void 
   664 ;; Registers used:
   665 ;;		wreg, fsr2l, fsr2h, status,2, status,0, cstack
   666 ;; Tracked objects:
   667 ;;		On entry : 0/0
   668 ;;		On exit  : 0/0
   669 ;;		Unchanged: 0/0
   670 ;; Data sizes:     COMRAM   BANK0   BANK1   BANK2   BANK3   BANK4   BANK5   BANK6   BANK7   BANK8   BANK9  BANK10  BANK1
      +1  BANK12  BANK13  BANK14
   671 ;;      Params:         0       0       0       0       0       0       0       0       0       0       0       0       
      +0       0       0       0
   672 ;;      Locals:         0       0       0       0       0       0       0       0       0       0       0       0       
      +0       0       0       0
   673 ;;      Temps:          0       0       0       0       0       0       0       0       0       0       0       0       
      +0       0       0       0
   674 ;;      Totals:         0       0       0       0       0       0       0       0       0       0       0       0       
      +0       0       0       0
   675 ;;Total ram usage:        0 bytes
   676 ;; Hardware stack levels used: 1
   677 ;; Hardware stack levels required when called: 5
   678 ;; This function calls:
   679 ;;		_EUSART1_Write
   680 ;; This function is called by:
   681 ;;		_main
   682 ;; This function uses a non-reentrant model
   683 ;;
   684                           
   685                           	psect	text1
   686   001F1C                     __ptext1:
   687                           	callstack 0
   688   001F1C                     _videecran:
   689                           	callstack 25
   690   001F1C                     
   691                           ;ecran.c: 25:    EUSART1_Write(0xFE);
   692   001F1C  0EFE               	movlw	254
   693   001F1E  EC6D  F00E         	call	_EUSART1_Write
   694                           
   695                           ;ecran.c: 26:    EUSART1_Write(0x51);
   696   001F22  0E51               	movlw	81
   697   001F24  EC6D  F00E         	call	_EUSART1_Write
   698   001F28  0012               	return		;funcret
   699   001F2A                     __end_of_videecran:
   700                           	callstack 0
   701                           
   702 ;; *************** function _trouver_CPPR *****************
   703 ;; Defined at:
   704 ;;		line 94 in file "main.c"
   705 ;; Parameters:    Size  Location     Type
   706 ;;  duty            4   54[COMRAM] void 
   707 ;; Auto vars:     Size  Location     Type
   708 ;;  ccpr            4   58[COMRAM] float 
   709 ;; Return value:  Size  Location     Type
   710 ;;                  2   54[COMRAM] int 
   711 ;; Registers used:
   712 ;;		wreg, status,2, status,0, prodl, prodh, cstack
   713 ;; Tracked objects:
   714 ;;		On entry : 0/0
   715 ;;		On exit  : 0/0
   716 ;;		Unchanged: 0/0
   717 ;; Data sizes:     COMRAM   BANK0   BANK1   BANK2   BANK3   BANK4   BANK5   BANK6   BANK7   BANK8   BANK9  BANK10  BANK1
      +1  BANK12  BANK13  BANK14
   718 ;;      Params:         4       0       0       0       0       0       0       0       0       0       0       0       
      +0       0       0       0
   719 ;;      Locals:         8       0       0       0       0       0       0       0       0       0       0       0       
      +0       0       0       0
   720 ;;      Temps:          0       0       0       0       0       0       0       0       0       0       0       0       
      +0       0       0       0
   721 ;;      Totals:        12       0       0       0       0       0       0       0       0       0       0       0       
      +0       0       0       0
   722 ;;Total ram usage:       12 bytes
   723 ;; Hardware stack levels used: 1
   724 ;; Hardware stack levels required when called: 5
   725 ;; This function calls:
   726 ;;		___fldiv
   727 ;;		___flmul
   728 ;;		___fltol
   729 ;; This function is called by:
   730 ;;		_main
   731 ;; This function uses a non-reentrant model
   732 ;;
   733                           
   734                           	psect	text2
   735   0019C2                     __ptext2:
   736                           	callstack 0
   737   0019C2                     _trouver_CPPR:
   738                           	callstack 25
   739   0019C2                     
   740                           ;main.c: 95:    float ccpr= ((duty/100)*0.019968)/0.032768*1023;
   741   0019C2  0EEE               	movlw	238
   742   0019C4  6E22               	movwf	___flmul@a^0,c
   743   0019C6  0E93               	movlw	147
   744   0019C8  6E23               	movwf	(___flmul@a+1)^0,c
   745   0019CA  0EA3               	movlw	163
   746   0019CC  6E24               	movwf	(___flmul@a+2)^0,c
   747   0019CE  0E3C               	movlw	60
   748   0019D0  6E25               	movwf	(___flmul@a+3)^0,c
   749   0019D2  0E00               	movlw	0
   750   0019D4  6E09               	movwf	___fldiv@a^0,c
   751   0019D6  0E00               	movlw	0
   752   0019D8  6E0A               	movwf	(___fldiv@a+1)^0,c
   753   0019DA  0EC8               	movlw	200
   754   0019DC  6E0B               	movwf	(___fldiv@a+2)^0,c
   755   0019DE  0E42               	movlw	66
   756   0019E0  6E0C               	movwf	(___fldiv@a+3)^0,c
   757   0019E2  C037  F005         	movff	trouver_CPPR@duty,___fldiv@b
   758   0019E6  C038  F006         	movff	trouver_CPPR@duty+1,___fldiv@b+1
   759   0019EA  C039  F007         	movff	trouver_CPPR@duty+2,___fldiv@b+2
   760   0019EE  C03A  F008         	movff	trouver_CPPR@duty+3,___fldiv@b+3
   761   0019F2  EC29  F00A         	call	___fldiv	;wreg free
   762   0019F6  C005  F01E         	movff	?___fldiv,___flmul@b
   763   0019FA  C006  F01F         	movff	?___fldiv+1,___flmul@b+1
   764   0019FE  C007  F020         	movff	?___fldiv+2,___flmul@b+2
   765   001A02  C008  F021         	movff	?___fldiv+3,___flmul@b+3
   766   001A06  EC14  F008         	call	___flmul	;wreg free
   767   001A0A  C01E  F03F         	movff	?___flmul,_trouver_CPPR$1631
   768   001A0E  C01F  F040         	movff	?___flmul+1,_trouver_CPPR$1631+1
   769   001A12  C020  F041         	movff	?___flmul+2,_trouver_CPPR$1631+2
   770   001A16  C021  F042         	movff	?___flmul+3,_trouver_CPPR$1631+3
   771                           
   772                           ;main.c: 95:    float ccpr= ((duty/100)*0.019968)/0.032768*1023;
   773   001A1A  0EBD               	movlw	189
   774   001A1C  6E09               	movwf	___fldiv@a^0,c
   775   001A1E  0E37               	movlw	55
   776   001A20  6E0A               	movwf	(___fldiv@a+1)^0,c
   777   001A22  0E06               	movlw	6
   778   001A24  6E0B               	movwf	(___fldiv@a+2)^0,c
   779   001A26  0E3D               	movlw	61
   780   001A28  6E0C               	movwf	(___fldiv@a+3)^0,c
   781   001A2A  C03F  F005         	movff	_trouver_CPPR$1631,___fldiv@b
   782   001A2E  C040  F006         	movff	_trouver_CPPR$1631+1,___fldiv@b+1
   783   001A32  C041  F007         	movff	_trouver_CPPR$1631+2,___fldiv@b+2
   784   001A36  C042  F008         	movff	_trouver_CPPR$1631+3,___fldiv@b+3
   785   001A3A  EC29  F00A         	call	___fldiv	;wreg free
   786   001A3E  C005  F01E         	movff	?___fldiv,___flmul@b
   787   001A42  C006  F01F         	movff	?___fldiv+1,___flmul@b+1
   788   001A46  C007  F020         	movff	?___fldiv+2,___flmul@b+2
   789   001A4A  C008  F021         	movff	?___fldiv+3,___flmul@b+3
   790   001A4E  0E00               	movlw	0
   791   001A50  6E22               	movwf	___flmul@a^0,c
   792   001A52  0EC0               	movlw	192
   793   001A54  6E23               	movwf	(___flmul@a+1)^0,c
   794   001A56  0E7F               	movlw	127
   795   001A58  6E24               	movwf	(___flmul@a+2)^0,c
   796   001A5A  0E44               	movlw	68
   797   001A5C  6E25               	movwf	(___flmul@a+3)^0,c
   798   001A5E  EC14  F008         	call	___flmul	;wreg free
   799   001A62  C01E  F03B         	movff	?___flmul,trouver_CPPR@ccpr
   800   001A66  C01F  F03C         	movff	?___flmul+1,trouver_CPPR@ccpr+1
   801   001A6A  C020  F03D         	movff	?___flmul+2,trouver_CPPR@ccpr+2
   802   001A6E  C021  F03E         	movff	?___flmul+3,trouver_CPPR@ccpr+3
   803   001A72                     
   804                           ;main.c: 102:    return (int)ccpr;
   805   001A72  C03B  F005         	movff	trouver_CPPR@ccpr,___fltol@f1
   806   001A76  C03C  F006         	movff	trouver_CPPR@ccpr+1,___fltol@f1+1
   807   001A7A  C03D  F007         	movff	trouver_CPPR@ccpr+2,___fltol@f1+2
   808   001A7E  C03E  F008         	movff	trouver_CPPR@ccpr+3,___fltol@f1+3
   809   001A82  ECF6  F00B         	call	___fltol	;wreg free
   810   001A86  C005  F037         	movff	?___fltol,?_trouver_CPPR
   811   001A8A  C006  F038         	movff	?___fltol+1,?_trouver_CPPR+1
   812   001A8E  0012               	return		;funcret
   813   001A90                     __end_of_trouver_CPPR:
   814                           	callstack 0
   815                           
   816 ;; *************** function ___fltol *****************
   817 ;; Defined at:
   818 ;;		line 43 in file "C:\Program Files\Microchip\xc8\v2.40\pic\sources\c99\common\fltol.c"
   819 ;; Parameters:    Size  Location     Type
   820 ;;  f1              4    4[COMRAM] int 
   821 ;; Auto vars:     Size  Location     Type
   822 ;;  exp1            1   13[COMRAM] unsigned char 
   823 ;;  sign1           1   12[COMRAM] unsigned char 
   824 ;; Return value:  Size  Location     Type
   825 ;;                  4    4[COMRAM] long 
   826 ;; Registers used:
   827 ;;		wreg, status,2, status,0
   828 ;; Tracked objects:
   829 ;;		On entry : 0/0
   830 ;;		On exit  : 0/0
   831 ;;		Unchanged: 0/0
   832 ;; Data sizes:     COMRAM   BANK0   BANK1   BANK2   BANK3   BANK4   BANK5   BANK6   BANK7   BANK8   BANK9  BANK10  BANK1
      +1  BANK12  BANK13  BANK14
   833 ;;      Params:         4       0       0       0       0       0       0       0       0       0       0       0       
      +0       0       0       0
   834 ;;      Locals:         2       0       0       0       0       0       0       0       0       0       0       0       
      +0       0       0       0
   835 ;;      Temps:          4       0       0       0       0       0       0       0       0       0       0       0       
      +0       0       0       0
   836 ;;      Totals:        10       0       0       0       0       0       0       0       0       0       0       0       
      +0       0       0       0
   837 ;;Total ram usage:       10 bytes
   838 ;; Hardware stack levels used: 1
   839 ;; Hardware stack levels required when called: 4
   840 ;; This function calls:
   841 ;;		Nothing
   842 ;; This function is called by:
   843 ;;		_trouver_CPPR
   844 ;; This function uses a non-reentrant model
   845 ;;
   846                           
   847                           	psect	text3
   848   0017EC                     __ptext3:
   849                           	callstack 0
   850   0017EC                     ___fltol:
   851                           	callstack 25
   852   0017EC  3407               	rlcf	(___fltol@f1+2)^0,w,c
   853   0017EE  3408               	rlcf	(___fltol@f1+3)^0,w,c
   854   0017F0  6E0E               	movwf	___fltol@exp1^0,c
   855   0017F2  500E               	movf	___fltol@exp1^0,w,c
   856   0017F4  A4D8               	btfss	status,2,c
   857   0017F6  EFFF  F00B         	goto	u2091
   858   0017FA  EF01  F00C         	goto	u2090
   859   0017FE                     u2091:
   860   0017FE  EF0B  F00C         	goto	l2591
   861   001802                     u2090:
   862   001802                     l2587:
   863   001802  0E00               	movlw	0
   864   001804  6E05               	movwf	?___fltol^0,c
   865   001806  0E00               	movlw	0
   866   001808  6E06               	movwf	(?___fltol+1)^0,c
   867   00180A  0E00               	movlw	0
   868   00180C  6E07               	movwf	(?___fltol+2)^0,c
   869   00180E  0E00               	movlw	0
   870   001810  6E08               	movwf	(?___fltol+3)^0,c
   871   001812  EF78  F00C         	goto	l622
   872   001816                     l2591:
   873   001816  C005  F009         	movff	___fltol@f1,??___fltol
   874   00181A  C006  F00A         	movff	___fltol@f1+1,??___fltol+1
   875   00181E  C007  F00B         	movff	___fltol@f1+2,??___fltol+2
   876   001822  C008  F00C         	movff	___fltol@f1+3,??___fltol+3
   877   001826  0E20               	movlw	32
   878   001828  EF1B  F00C         	goto	u2100
   879   00182C                     u2105:
   880   00182C  90D8               	bcf	status,0,c
   881   00182E  320C               	rrcf	(??___fltol+3)^0,f,c
   882   001830  320B               	rrcf	(??___fltol+2)^0,f,c
   883   001832  320A               	rrcf	(??___fltol+1)^0,f,c
   884   001834  3209               	rrcf	??___fltol^0,f,c
   885   001836                     u2100:
   886   001836  2EE8               	decfsz	wreg,f,c
   887   001838  EF16  F00C         	goto	u2105
   888   00183C  5009               	movf	??___fltol^0,w,c
   889   00183E  6E0D               	movwf	___fltol@sign1^0,c
   890   001840  8E07               	bsf	(___fltol@f1+2)^0,7,c
   891   001842  0EFF               	movlw	255
   892   001844  1605               	andwf	___fltol@f1^0,f,c
   893   001846  0EFF               	movlw	255
   894   001848  1606               	andwf	(___fltol@f1+1)^0,f,c
   895   00184A  0EFF               	movlw	255
   896   00184C  1607               	andwf	(___fltol@f1+2)^0,f,c
   897   00184E  0E00               	movlw	0
   898   001850  1608               	andwf	(___fltol@f1+3)^0,f,c
   899   001852  0E96               	movlw	150
   900   001854  5E0E               	subwf	___fltol@exp1^0,f,c
   901   001856  BE0E               	btfsc	___fltol@exp1^0,7,c
   902   001858  EF32  F00C         	goto	u2110
   903   00185C  EF30  F00C         	goto	u2111
   904   001860                     u2111:
   905   001860  EF48  F00C         	goto	l2611
   906   001864                     u2110:
   907   001864  500E               	movf	___fltol@exp1^0,w,c
   908   001866  0A80               	xorlw	128
   909   001868  0F97               	addlw	151
   910   00186A  B0D8               	btfsc	status,0,c
   911   00186C  EF3A  F00C         	goto	u2121
   912   001870  EF3C  F00C         	goto	u2120
   913   001874                     u2121:
   914   001874  EF3E  F00C         	goto	l2607
   915   001878                     u2120:
   916   001878  EF01  F00C         	goto	l2587
   917   00187C                     l2607:
   918   00187C  90D8               	bcf	status,0,c
   919   00187E  3208               	rrcf	(___fltol@f1+3)^0,f,c
   920   001880  3207               	rrcf	(___fltol@f1+2)^0,f,c
   921   001882  3206               	rrcf	(___fltol@f1+1)^0,f,c
   922   001884  3205               	rrcf	___fltol@f1^0,f,c
   923   001886  3E0E               	incfsz	___fltol@exp1^0,f,c
   924   001888  EF3E  F00C         	goto	l2607
   925   00188C  EF60  F00C         	goto	l2621
   926   001890                     l2611:
   927   001890  0E1F               	movlw	31
   928   001892  640E               	cpfsgt	___fltol@exp1^0,c
   929   001894  EF4E  F00C         	goto	u2131
   930   001898  EF50  F00C         	goto	u2130
   931   00189C                     u2131:
   932   00189C  EF58  F00C         	goto	l2619
   933   0018A0                     u2130:
   934   0018A0  EF01  F00C         	goto	l2587
   935   0018A4                     l2617:
   936   0018A4  90D8               	bcf	status,0,c
   937   0018A6  3605               	rlcf	___fltol@f1^0,f,c
   938   0018A8  3606               	rlcf	(___fltol@f1+1)^0,f,c
   939   0018AA  3607               	rlcf	(___fltol@f1+2)^0,f,c
   940   0018AC  3608               	rlcf	(___fltol@f1+3)^0,f,c
   941   0018AE  060E               	decf	___fltol@exp1^0,f,c
   942   0018B0                     l2619:
   943   0018B0  500E               	movf	___fltol@exp1^0,w,c
   944   0018B2  A4D8               	btfss	status,2,c
   945   0018B4  EF5E  F00C         	goto	u2141
   946   0018B8  EF60  F00C         	goto	u2140
   947   0018BC                     u2141:
   948   0018BC  EF52  F00C         	goto	l2617
   949   0018C0                     u2140:
   950   0018C0                     l2621:
   951   0018C0  500D               	movf	___fltol@sign1^0,w,c
   952   0018C2  B4D8               	btfsc	status,2,c
   953   0018C4  EF66  F00C         	goto	u2151
   954   0018C8  EF68  F00C         	goto	u2150
   955   0018CC                     u2151:
   956   0018CC  EF70  F00C         	goto	l2625
   957   0018D0                     u2150:
   958   0018D0  1E08               	comf	(___fltol@f1+3)^0,f,c
   959   0018D2  1E07               	comf	(___fltol@f1+2)^0,f,c
   960   0018D4  1E06               	comf	(___fltol@f1+1)^0,f,c
   961   0018D6  6C05               	negf	___fltol@f1^0,c
   962   0018D8  0E00               	movlw	0
   963   0018DA  2206               	addwfc	(___fltol@f1+1)^0,f,c
   964   0018DC  2207               	addwfc	(___fltol@f1+2)^0,f,c
   965   0018DE  2208               	addwfc	(___fltol@f1+3)^0,f,c
   966   0018E0                     l2625:
   967   0018E0  C005  F005         	movff	___fltol@f1,?___fltol
   968   0018E4  C006  F006         	movff	___fltol@f1+1,?___fltol+1
   969   0018E8  C007  F007         	movff	___fltol@f1+2,?___fltol+2
   970   0018EC  C008  F008         	movff	___fltol@f1+3,?___fltol+3
   971   0018F0                     l622:
   972   0018F0  0012               	return		;funcret
   973   0018F2                     __end_of___fltol:
   974                           	callstack 0
   975                           
   976 ;; *************** function ___flmul *****************
   977 ;; Defined at:
   978 ;;		line 8 in file "C:\Program Files\Microchip\xc8\v2.40\pic\sources\c99\common\sprcmul.c"
   979 ;; Parameters:    Size  Location     Type
   980 ;;  b               4   29[COMRAM] long 
   981 ;;  a               4   33[COMRAM] long 
   982 ;; Auto vars:     Size  Location     Type
   983 ;;  prod            4   48[COMRAM] struct .
   984 ;;  grs             4   43[COMRAM] unsigned long 
   985 ;;  temp            2   52[COMRAM] struct .
   986 ;;  bexp            1   47[COMRAM] unsigned char 
   987 ;;  aexp            1   42[COMRAM] unsigned char 
   988 ;;  sign            1   41[COMRAM] unsigned char 
   989 ;; Return value:  Size  Location     Type
   990 ;;                  4   29[COMRAM] unsigned char 
   991 ;; Registers used:
   992 ;;		wreg, status,2, status,0, prodl, prodh
   993 ;; Tracked objects:
   994 ;;		On entry : 0/0
   995 ;;		On exit  : 0/0
   996 ;;		Unchanged: 0/0
   997 ;; Data sizes:     COMRAM   BANK0   BANK1   BANK2   BANK3   BANK4   BANK5   BANK6   BANK7   BANK8   BANK9  BANK10  BANK1
      +1  BANK12  BANK13  BANK14
   998 ;;      Params:         8       0       0       0       0       0       0       0       0       0       0       0       
      +0       0       0       0
   999 ;;      Locals:        13       0       0       0       0       0       0       0       0       0       0       0       
      +0       0       0       0
  1000 ;;      Temps:          4       0       0       0       0       0       0       0       0       0       0       0       
      +0       0       0       0
  1001 ;;      Totals:        25       0       0       0       0       0       0       0       0       0       0       0       
      +0       0       0       0
  1002 ;;Total ram usage:       25 bytes
  1003 ;; Hardware stack levels used: 1
  1004 ;; Hardware stack levels required when called: 4
  1005 ;; This function calls:
  1006 ;;		Nothing
  1007 ;; This function is called by:
  1008 ;;		_trouver_CPPR
  1009 ;; This function uses a non-reentrant model
  1010 ;;
  1011                           
  1012                           	psect	text4
  1013   001028                     __ptext4:
  1014                           	callstack 0
  1015   001028                     ___flmul:
  1016                           	callstack 25
  1017   001028  5021               	movf	(___flmul@b+3)^0,w,c
  1018   00102A  0B80               	andlw	128
  1019   00102C  6E2A               	movwf	___flmul@sign^0,c
  1020   00102E  5021               	movf	(___flmul@b+3)^0,w,c
  1021   001030  2421               	addwf	(___flmul@b+3)^0,w,c
  1022   001032  6E30               	movwf	___flmul@bexp^0,c
  1023   001034  AE20               	btfss	(___flmul@b+2)^0,7,c
  1024   001036  EF1F  F008         	goto	u1901
  1025   00103A  EF21  F008         	goto	u1900
  1026   00103E                     u1901:
  1027   00103E  EF22  F008         	goto	l2461
  1028   001042                     u1900:
  1029   001042  8030               	bsf	___flmul@bexp^0,0,c
  1030   001044                     l2461:
  1031   001044  5030               	movf	___flmul@bexp^0,w,c
  1032   001046  B4D8               	btfsc	status,2,c
  1033   001048  EF28  F008         	goto	u1911
  1034   00104C  EF2A  F008         	goto	u1910
  1035   001050                     u1911:
  1036   001050  EF3D  F008         	goto	l2469
  1037   001054                     u1910:
  1038   001054  2830               	incf	___flmul@bexp^0,w,c
  1039   001056  A4D8               	btfss	status,2,c
  1040   001058  EF30  F008         	goto	u1921
  1041   00105C  EF32  F008         	goto	u1920
  1042   001060                     u1921:
  1043   001060  EF3A  F008         	goto	l2467
  1044   001064                     u1920:
  1045   001064  0E00               	movlw	0
  1046   001066  6E1E               	movwf	___flmul@b^0,c
  1047   001068  0E00               	movlw	0
  1048   00106A  6E1F               	movwf	(___flmul@b+1)^0,c
  1049   00106C  0E00               	movlw	0
  1050   00106E  6E20               	movwf	(___flmul@b+2)^0,c
  1051   001070  0E00               	movlw	0
  1052   001072  6E21               	movwf	(___flmul@b+3)^0,c
  1053   001074                     l2467:
  1054   001074  8E20               	bsf	(___flmul@b+2)^0,7,c
  1055   001076  EF45  F008         	goto	l2471
  1056   00107A                     l2469:
  1057   00107A  0E00               	movlw	0
  1058   00107C  6E1E               	movwf	___flmul@b^0,c
  1059   00107E  0E00               	movlw	0
  1060   001080  6E1F               	movwf	(___flmul@b+1)^0,c
  1061   001082  0E00               	movlw	0
  1062   001084  6E20               	movwf	(___flmul@b+2)^0,c
  1063   001086  0E00               	movlw	0
  1064   001088  6E21               	movwf	(___flmul@b+3)^0,c
  1065   00108A                     l2471:
  1066   00108A  5025               	movf	(___flmul@a+3)^0,w,c
  1067   00108C  0B80               	andlw	128
  1068   00108E  1A2A               	xorwf	___flmul@sign^0,f,c
  1069   001090  5025               	movf	(___flmul@a+3)^0,w,c
  1070   001092  2425               	addwf	(___flmul@a+3)^0,w,c
  1071   001094  6E2B               	movwf	___flmul@aexp^0,c
  1072   001096  AE24               	btfss	(___flmul@a+2)^0,7,c
  1073   001098  EF50  F008         	goto	u1931
  1074   00109C  EF52  F008         	goto	u1930
  1075   0010A0                     u1931:
  1076   0010A0  EF53  F008         	goto	l2479
  1077   0010A4                     u1930:
  1078   0010A4  802B               	bsf	___flmul@aexp^0,0,c
  1079   0010A6                     l2479:
  1080   0010A6  502B               	movf	___flmul@aexp^0,w,c
  1081   0010A8  B4D8               	btfsc	status,2,c
  1082   0010AA  EF59  F008         	goto	u1941
  1083   0010AE  EF5B  F008         	goto	u1940
  1084   0010B2                     u1941:
  1085   0010B2  EF6E  F008         	goto	l2487
  1086   0010B6                     u1940:
  1087   0010B6  282B               	incf	___flmul@aexp^0,w,c
  1088   0010B8  A4D8               	btfss	status,2,c
  1089   0010BA  EF61  F008         	goto	u1951
  1090   0010BE  EF63  F008         	goto	u1950
  1091   0010C2                     u1951:
  1092   0010C2  EF6B  F008         	goto	l2485
  1093   0010C6                     u1950:
  1094   0010C6  0E00               	movlw	0
  1095   0010C8  6E22               	movwf	___flmul@a^0,c
  1096   0010CA  0E00               	movlw	0
  1097   0010CC  6E23               	movwf	(___flmul@a+1)^0,c
  1098   0010CE  0E00               	movlw	0
  1099   0010D0  6E24               	movwf	(___flmul@a+2)^0,c
  1100   0010D2  0E00               	movlw	0
  1101   0010D4  6E25               	movwf	(___flmul@a+3)^0,c
  1102   0010D6                     l2485:
  1103   0010D6  8E24               	bsf	(___flmul@a+2)^0,7,c
  1104   0010D8  EF76  F008         	goto	l939
  1105   0010DC                     l2487:
  1106   0010DC  0E00               	movlw	0
  1107   0010DE  6E22               	movwf	___flmul@a^0,c
  1108   0010E0  0E00               	movlw	0
  1109   0010E2  6E23               	movwf	(___flmul@a+1)^0,c
  1110   0010E4  0E00               	movlw	0
  1111   0010E6  6E24               	movwf	(___flmul@a+2)^0,c
  1112   0010E8  0E00               	movlw	0
  1113   0010EA  6E25               	movwf	(___flmul@a+3)^0,c
  1114   0010EC                     l939:
  1115   0010EC  502B               	movf	___flmul@aexp^0,w,c
  1116   0010EE  B4D8               	btfsc	status,2,c
  1117   0010F0  EF7C  F008         	goto	u1961
  1118   0010F4  EF7E  F008         	goto	u1960
  1119   0010F8                     u1961:
  1120   0010F8  EF86  F008         	goto	l2491
  1121   0010FC                     u1960:
  1122   0010FC  5030               	movf	___flmul@bexp^0,w,c
  1123   0010FE  A4D8               	btfss	status,2,c
  1124   001100  EF84  F008         	goto	u1971
  1125   001104  EF86  F008         	goto	u1970
  1126   001108                     u1971:
  1127   001108  EF90  F008         	goto	l2495
  1128   00110C                     u1970:
  1129   00110C                     l2491:
  1130   00110C  0E00               	movlw	0
  1131   00110E  6E1E               	movwf	?___flmul^0,c
  1132   001110  0E00               	movlw	0
  1133   001112  6E1F               	movwf	(?___flmul+1)^0,c
  1134   001114  0E00               	movlw	0
  1135   001116  6E20               	movwf	(?___flmul+2)^0,c
  1136   001118  0E00               	movlw	0
  1137   00111A  6E21               	movwf	(?___flmul+3)^0,c
  1138   00111C  EF28  F00A         	goto	l943
  1139   001120                     l2495:
  1140   001120  5024               	movf	(___flmul@a+2)^0,w,c
  1141   001122  021E               	mulwf	___flmul@b^0,c
  1142   001124  CFF3 F035          	movff	prodl,___flmul@temp
  1143   001128  CFF4 F036          	movff	prodh,___flmul@temp+1
  1144   00112C  5035               	movf	___flmul@temp^0,w,c
  1145   00112E  6E2C               	movwf	___flmul@grs^0,c
  1146   001130  6A2D               	clrf	(___flmul@grs+1)^0,c
  1147   001132  6A2E               	clrf	(___flmul@grs+2)^0,c
  1148   001134  6A2F               	clrf	(___flmul@grs+3)^0,c
  1149   001136  5036               	movf	(___flmul@temp+1)^0,w,c
  1150   001138  6E31               	movwf	___flmul@prod^0,c
  1151   00113A  6A32               	clrf	(___flmul@prod+1)^0,c
  1152   00113C  6A33               	clrf	(___flmul@prod+2)^0,c
  1153   00113E  6A34               	clrf	(___flmul@prod+3)^0,c
  1154   001140  5023               	movf	(___flmul@a+1)^0,w,c
  1155   001142  021F               	mulwf	(___flmul@b+1)^0,c
  1156   001144  CFF3 F035          	movff	prodl,___flmul@temp
  1157   001148  CFF4 F036          	movff	prodh,___flmul@temp+1
  1158   00114C  5035               	movf	___flmul@temp^0,w,c
  1159   00114E  262C               	addwf	___flmul@grs^0,f,c
  1160   001150  0E00               	movlw	0
  1161   001152  222D               	addwfc	(___flmul@grs+1)^0,f,c
  1162   001154  222E               	addwfc	(___flmul@grs+2)^0,f,c
  1163   001156  222F               	addwfc	(___flmul@grs+3)^0,f,c
  1164   001158  5036               	movf	(___flmul@temp+1)^0,w,c
  1165   00115A  2631               	addwf	___flmul@prod^0,f,c
  1166   00115C  0E00               	movlw	0
  1167   00115E  2232               	addwfc	(___flmul@prod+1)^0,f,c
  1168   001160  2233               	addwfc	(___flmul@prod+2)^0,f,c
  1169   001162  2234               	addwfc	(___flmul@prod+3)^0,f,c
  1170   001164  5022               	movf	___flmul@a^0,w,c
  1171   001166  0220               	mulwf	(___flmul@b+2)^0,c
  1172   001168  CFF3 F035          	movff	prodl,___flmul@temp
  1173   00116C  CFF4 F036          	movff	prodh,___flmul@temp+1
  1174   001170  5035               	movf	___flmul@temp^0,w,c
  1175   001172  262C               	addwf	___flmul@grs^0,f,c
  1176   001174  0E00               	movlw	0
  1177   001176  222D               	addwfc	(___flmul@grs+1)^0,f,c
  1178   001178  222E               	addwfc	(___flmul@grs+2)^0,f,c
  1179   00117A  222F               	addwfc	(___flmul@grs+3)^0,f,c
  1180   00117C  5036               	movf	(___flmul@temp+1)^0,w,c
  1181   00117E  2631               	addwf	___flmul@prod^0,f,c
  1182   001180  0E00               	movlw	0
  1183   001182  2232               	addwfc	(___flmul@prod+1)^0,f,c
  1184   001184  2233               	addwfc	(___flmul@prod+2)^0,f,c
  1185   001186  2234               	addwfc	(___flmul@prod+3)^0,f,c
  1186   001188  C02E  F02F         	movff	___flmul@grs+2,___flmul@grs+3
  1187   00118C  C02D  F02E         	movff	___flmul@grs+1,___flmul@grs+2
  1188   001190  C02C  F02D         	movff	___flmul@grs,___flmul@grs+1
  1189   001194  6A2C               	clrf	___flmul@grs^0,c
  1190   001196  5022               	movf	___flmul@a^0,w,c
  1191   001198  021F               	mulwf	(___flmul@b+1)^0,c
  1192   00119A  CFF3 F035          	movff	prodl,___flmul@temp
  1193   00119E  CFF4 F036          	movff	prodh,___flmul@temp+1
  1194   0011A2  5035               	movf	___flmul@temp^0,w,c
  1195   0011A4  262C               	addwf	___flmul@grs^0,f,c
  1196   0011A6  5036               	movf	(___flmul@temp+1)^0,w,c
  1197   0011A8  222D               	addwfc	(___flmul@grs+1)^0,f,c
  1198   0011AA  0E00               	movlw	0
  1199   0011AC  222E               	addwfc	(___flmul@grs+2)^0,f,c
  1200   0011AE  0E00               	movlw	0
  1201   0011B0  222F               	addwfc	(___flmul@grs+3)^0,f,c
  1202   0011B2  5023               	movf	(___flmul@a+1)^0,w,c
  1203   0011B4  021E               	mulwf	___flmul@b^0,c
  1204   0011B6  CFF3 F035          	movff	prodl,___flmul@temp
  1205   0011BA  CFF4 F036          	movff	prodh,___flmul@temp+1
  1206   0011BE  5035               	movf	___flmul@temp^0,w,c
  1207   0011C0  262C               	addwf	___flmul@grs^0,f,c
  1208   0011C2  5036               	movf	(___flmul@temp+1)^0,w,c
  1209   0011C4  222D               	addwfc	(___flmul@grs+1)^0,f,c
  1210   0011C6  0E00               	movlw	0
  1211   0011C8  222E               	addwfc	(___flmul@grs+2)^0,f,c
  1212   0011CA  0E00               	movlw	0
  1213   0011CC  222F               	addwfc	(___flmul@grs+3)^0,f,c
  1214   0011CE  C02E  F02F         	movff	___flmul@grs+2,___flmul@grs+3
  1215   0011D2  C02D  F02E         	movff	___flmul@grs+1,___flmul@grs+2
  1216   0011D6  C02C  F02D         	movff	___flmul@grs,___flmul@grs+1
  1217   0011DA  6A2C               	clrf	___flmul@grs^0,c
  1218   0011DC  5022               	movf	___flmul@a^0,w,c
  1219   0011DE  021E               	mulwf	___flmul@b^0,c
  1220   0011E0  CFF3 F035          	movff	prodl,___flmul@temp
  1221   0011E4  CFF4 F036          	movff	prodh,___flmul@temp+1
  1222   0011E8  5035               	movf	___flmul@temp^0,w,c
  1223   0011EA  262C               	addwf	___flmul@grs^0,f,c
  1224   0011EC  5036               	movf	(___flmul@temp+1)^0,w,c
  1225   0011EE  222D               	addwfc	(___flmul@grs+1)^0,f,c
  1226   0011F0  0E00               	movlw	0
  1227   0011F2  222E               	addwfc	(___flmul@grs+2)^0,f,c
  1228   0011F4  0E00               	movlw	0
  1229   0011F6  222F               	addwfc	(___flmul@grs+3)^0,f,c
  1230   0011F8  5024               	movf	(___flmul@a+2)^0,w,c
  1231   0011FA  021F               	mulwf	(___flmul@b+1)^0,c
  1232   0011FC  CFF3 F035          	movff	prodl,___flmul@temp
  1233   001200  CFF4 F036          	movff	prodh,___flmul@temp+1
  1234   001204  5035               	movf	___flmul@temp^0,w,c
  1235   001206  2631               	addwf	___flmul@prod^0,f,c
  1236   001208  5036               	movf	(___flmul@temp+1)^0,w,c
  1237   00120A  2232               	addwfc	(___flmul@prod+1)^0,f,c
  1238   00120C  0E00               	movlw	0
  1239   00120E  2233               	addwfc	(___flmul@prod+2)^0,f,c
  1240   001210  0E00               	movlw	0
  1241   001212  2234               	addwfc	(___flmul@prod+3)^0,f,c
  1242   001214  5023               	movf	(___flmul@a+1)^0,w,c
  1243   001216  0220               	mulwf	(___flmul@b+2)^0,c
  1244   001218  CFF3 F035          	movff	prodl,___flmul@temp
  1245   00121C  CFF4 F036          	movff	prodh,___flmul@temp+1
  1246   001220  5035               	movf	___flmul@temp^0,w,c
  1247   001222  2631               	addwf	___flmul@prod^0,f,c
  1248   001224  5036               	movf	(___flmul@temp+1)^0,w,c
  1249   001226  2232               	addwfc	(___flmul@prod+1)^0,f,c
  1250   001228  0E00               	movlw	0
  1251   00122A  2233               	addwfc	(___flmul@prod+2)^0,f,c
  1252   00122C  0E00               	movlw	0
  1253   00122E  2234               	addwfc	(___flmul@prod+3)^0,f,c
  1254   001230  5024               	movf	(___flmul@a+2)^0,w,c
  1255   001232  0220               	mulwf	(___flmul@b+2)^0,c
  1256   001234  CFF3 F035          	movff	prodl,___flmul@temp
  1257   001238  CFF4 F036          	movff	prodh,___flmul@temp+1
  1258   00123C  5035               	movf	___flmul@temp^0,w,c
  1259   00123E  6E26               	movwf	??___flmul^0,c
  1260   001240  5036               	movf	(___flmul@temp+1)^0,w,c
  1261   001242  6E27               	movwf	(??___flmul+1)^0,c
  1262   001244  6A28               	clrf	(??___flmul+2)^0,c
  1263   001246  6A29               	clrf	(??___flmul+3)^0,c
  1264   001248  C028  F029         	movff	??___flmul+2,??___flmul+3
  1265   00124C  C027  F028         	movff	??___flmul+1,??___flmul+2
  1266   001250  C026  F027         	movff	??___flmul,??___flmul+1
  1267   001254  6A26               	clrf	??___flmul^0,c
  1268   001256  5026               	movf	??___flmul^0,w,c
  1269   001258  2631               	addwf	___flmul@prod^0,f,c
  1270   00125A  5027               	movf	(??___flmul+1)^0,w,c
  1271   00125C  2232               	addwfc	(___flmul@prod+1)^0,f,c
  1272   00125E  5028               	movf	(??___flmul+2)^0,w,c
  1273   001260  2233               	addwfc	(___flmul@prod+2)^0,f,c
  1274   001262  5029               	movf	(??___flmul+3)^0,w,c
  1275   001264  2234               	addwfc	(___flmul@prod+3)^0,f,c
  1276   001266  C02C  F026         	movff	___flmul@grs,??___flmul
  1277   00126A  C02D  F027         	movff	___flmul@grs+1,??___flmul+1
  1278   00126E  C02E  F028         	movff	___flmul@grs+2,??___flmul+2
  1279   001272  C02F  F029         	movff	___flmul@grs+3,??___flmul+3
  1280   001276  0E19               	movlw	25
  1281   001278  EF43  F009         	goto	u1980
  1282   00127C                     u1985:
  1283   00127C  90D8               	bcf	status,0,c
  1284   00127E  3229               	rrcf	(??___flmul+3)^0,f,c
  1285   001280  3228               	rrcf	(??___flmul+2)^0,f,c
  1286   001282  3227               	rrcf	(??___flmul+1)^0,f,c
  1287   001284  3226               	rrcf	??___flmul^0,f,c
  1288   001286                     u1980:
  1289   001286  2EE8               	decfsz	wreg,f,c
  1290   001288  EF3E  F009         	goto	u1985
  1291   00128C  5026               	movf	??___flmul^0,w,c
  1292   00128E  2631               	addwf	___flmul@prod^0,f,c
  1293   001290  5027               	movf	(??___flmul+1)^0,w,c
  1294   001292  2232               	addwfc	(___flmul@prod+1)^0,f,c
  1295   001294  5028               	movf	(??___flmul+2)^0,w,c
  1296   001296  2233               	addwfc	(___flmul@prod+2)^0,f,c
  1297   001298  5029               	movf	(??___flmul+3)^0,w,c
  1298   00129A  2234               	addwfc	(___flmul@prod+3)^0,f,c
  1299   00129C  C02E  F02F         	movff	___flmul@grs+2,___flmul@grs+3
  1300   0012A0  C02D  F02E         	movff	___flmul@grs+1,___flmul@grs+2
  1301   0012A4  C02C  F02D         	movff	___flmul@grs,___flmul@grs+1
  1302   0012A8  6A2C               	clrf	___flmul@grs^0,c
  1303   0012AA  502B               	movf	___flmul@aexp^0,w,c
  1304   0012AC  C030  F026         	movff	___flmul@bexp,??___flmul
  1305   0012B0  6A27               	clrf	(??___flmul+1)^0,c
  1306   0012B2  2626               	addwf	??___flmul^0,f,c
  1307   0012B4  0E00               	movlw	0
  1308   0012B6  2227               	addwfc	(??___flmul+1)^0,f,c
  1309   0012B8  0E82               	movlw	130
  1310   0012BA  2426               	addwf	??___flmul^0,w,c
  1311   0012BC  6E35               	movwf	___flmul@temp^0,c
  1312   0012BE  0EFF               	movlw	255
  1313   0012C0  2027               	addwfc	(??___flmul+1)^0,w,c
  1314   0012C2  6E36               	movwf	(___flmul@temp+1)^0,c
  1315   0012C4  EF79  F009         	goto	l2543
  1316   0012C8                     l2537:
  1317   0012C8  90D8               	bcf	status,0,c
  1318   0012CA  3631               	rlcf	___flmul@prod^0,f,c
  1319   0012CC  3632               	rlcf	(___flmul@prod+1)^0,f,c
  1320   0012CE  3633               	rlcf	(___flmul@prod+2)^0,f,c
  1321   0012D0  3634               	rlcf	(___flmul@prod+3)^0,f,c
  1322   0012D2  AE2F               	btfss	(___flmul@grs+3)^0,7,c
  1323   0012D4  EF6E  F009         	goto	u1991
  1324   0012D8  EF70  F009         	goto	u1990
  1325   0012DC                     u1991:
  1326   0012DC  EF71  F009         	goto	l946
  1327   0012E0                     u1990:
  1328   0012E0  8031               	bsf	___flmul@prod^0,0,c
  1329   0012E2                     l946:
  1330   0012E2  90D8               	bcf	status,0,c
  1331   0012E4  362C               	rlcf	___flmul@grs^0,f,c
  1332   0012E6  362D               	rlcf	(___flmul@grs+1)^0,f,c
  1333   0012E8  362E               	rlcf	(___flmul@grs+2)^0,f,c
  1334   0012EA  362F               	rlcf	(___flmul@grs+3)^0,f,c
  1335   0012EC  0635               	decf	___flmul@temp^0,f,c
  1336   0012EE  A0D8               	btfss	status,0,c
  1337   0012F0  0636               	decf	(___flmul@temp+1)^0,f,c
  1338   0012F2                     l2543:
  1339   0012F2  AE33               	btfss	(___flmul@prod+2)^0,7,c
  1340   0012F4  EF7E  F009         	goto	u2001
  1341   0012F8  EF80  F009         	goto	u2000
  1342   0012FC                     u2001:
  1343   0012FC  EF64  F009         	goto	l2537
  1344   001300                     u2000:
  1345   001300  0E00               	movlw	0
  1346   001302  6E2B               	movwf	___flmul@aexp^0,c
  1347   001304  AE2F               	btfss	(___flmul@grs+3)^0,7,c
  1348   001306  EF87  F009         	goto	u2011
  1349   00130A  EF89  F009         	goto	u2010
  1350   00130E                     u2011:
  1351   00130E  EFAD  F009         	goto	l948
  1352   001312                     u2010:
  1353   001312  0EFF               	movlw	255
  1354   001314  142C               	andwf	___flmul@grs^0,w,c
  1355   001316  6E26               	movwf	??___flmul^0,c
  1356   001318  0EFF               	movlw	255
  1357   00131A  142D               	andwf	(___flmul@grs+1)^0,w,c
  1358   00131C  6E27               	movwf	(??___flmul+1)^0,c
  1359   00131E  0EFF               	movlw	255
  1360   001320  142E               	andwf	(___flmul@grs+2)^0,w,c
  1361   001322  6E28               	movwf	(??___flmul+2)^0,c
  1362   001324  0E7F               	movlw	127
  1363   001326  142F               	andwf	(___flmul@grs+3)^0,w,c
  1364   001328  6E29               	movwf	(??___flmul+3)^0,c
  1365   00132A  5026               	movf	??___flmul^0,w,c
  1366   00132C  1027               	iorwf	(??___flmul+1)^0,w,c
  1367   00132E  1028               	iorwf	(??___flmul+2)^0,w,c
  1368   001330  1029               	iorwf	(??___flmul+3)^0,w,c
  1369   001332  B4D8               	btfsc	status,2,c
  1370   001334  EF9E  F009         	goto	u2021
  1371   001338  EFA0  F009         	goto	u2020
  1372   00133C                     u2021:
  1373   00133C  EFA4  F009         	goto	l949
  1374   001340                     u2020:
  1375   001340                     l2551:
  1376   001340  0E01               	movlw	1
  1377   001342  6E2B               	movwf	___flmul@aexp^0,c
  1378   001344  EFAD  F009         	goto	l948
  1379   001348                     l949:
  1380   001348  A031               	btfss	___flmul@prod^0,0,c
  1381   00134A  EFA9  F009         	goto	u2031
  1382   00134E  EFAB  F009         	goto	u2030
  1383   001352                     u2031:
  1384   001352  EFAD  F009         	goto	l948
  1385   001356                     u2030:
  1386   001356  EFA0  F009         	goto	l2551
  1387   00135A                     l948:
  1388   00135A  502B               	movf	___flmul@aexp^0,w,c
  1389   00135C  B4D8               	btfsc	status,2,c
  1390   00135E  EFB3  F009         	goto	u2041
  1391   001362  EFB5  F009         	goto	u2040
  1392   001366                     u2041:
  1393   001366  EFD9  F009         	goto	l2563
  1394   00136A                     u2040:
  1395   00136A  0E01               	movlw	1
  1396   00136C  2631               	addwf	___flmul@prod^0,f,c
  1397   00136E  0E00               	movlw	0
  1398   001370  2232               	addwfc	(___flmul@prod+1)^0,f,c
  1399   001372  2233               	addwfc	(___flmul@prod+2)^0,f,c
  1400   001374  2234               	addwfc	(___flmul@prod+3)^0,f,c
  1401   001376  A034               	btfss	(___flmul@prod+3)^0,0,c
  1402   001378  EFC0  F009         	goto	u2051
  1403   00137C  EFC2  F009         	goto	u2050
  1404   001380                     u2051:
  1405   001380  EFD9  F009         	goto	l2563
  1406   001384                     u2050:
  1407   001384  C031  F026         	movff	___flmul@prod,??___flmul
  1408   001388  C032  F027         	movff	___flmul@prod+1,??___flmul+1
  1409   00138C  C033  F028         	movff	___flmul@prod+2,??___flmul+2
  1410   001390  C034  F029         	movff	___flmul@prod+3,??___flmul+3
  1411   001394  3429               	rlcf	(??___flmul+3)^0,w,c
  1412   001396  3229               	rrcf	(??___flmul+3)^0,f,c
  1413   001398  3228               	rrcf	(??___flmul+2)^0,f,c
  1414   00139A  3227               	rrcf	(??___flmul+1)^0,f,c
  1415   00139C  3226               	rrcf	??___flmul^0,f,c
  1416   00139E  C026  F031         	movff	??___flmul,___flmul@prod
  1417   0013A2  C027  F032         	movff	??___flmul+1,___flmul@prod+1
  1418   0013A6  C028  F033         	movff	??___flmul+2,___flmul@prod+2
  1419   0013AA  C029  F034         	movff	??___flmul+3,___flmul@prod+3
  1420   0013AE  4A35               	infsnz	___flmul@temp^0,f,c
  1421   0013B0  2A36               	incf	(___flmul@temp+1)^0,f,c
  1422   0013B2                     l2563:
  1423   0013B2  BE36               	btfsc	(___flmul@temp+1)^0,7,c
  1424   0013B4  EFE4  F009         	goto	u2061
  1425   0013B8  5036               	movf	(___flmul@temp+1)^0,w,c
  1426   0013BA  E108               	bnz	u2060
  1427   0013BC  2835               	incf	___flmul@temp^0,w,c
  1428   0013BE  A0D8               	btfss	status,0,c
  1429   0013C0  EFE4  F009         	goto	u2061
  1430   0013C4  EFE6  F009         	goto	u2060
  1431   0013C8                     u2061:
  1432   0013C8  EFF0  F009         	goto	l2567
  1433   0013CC                     u2060:
  1434   0013CC  0E00               	movlw	0
  1435   0013CE  6E31               	movwf	___flmul@prod^0,c
  1436   0013D0  0E00               	movlw	0
  1437   0013D2  6E32               	movwf	(___flmul@prod+1)^0,c
  1438   0013D4  0E80               	movlw	128
  1439   0013D6  6E33               	movwf	(___flmul@prod+2)^0,c
  1440   0013D8  0E7F               	movlw	127
  1441   0013DA  6E34               	movwf	(___flmul@prod+3)^0,c
  1442   0013DC  EF1E  F00A         	goto	l2579
  1443   0013E0                     l2567:
  1444   0013E0  BE36               	btfsc	(___flmul@temp+1)^0,7,c
  1445   0013E2  EFFD  F009         	goto	u2070
  1446   0013E6  5036               	movf	(___flmul@temp+1)^0,w,c
  1447   0013E8  E106               	bnz	u2071
  1448   0013EA  0435               	decf	___flmul@temp^0,w,c
  1449   0013EC  B0D8               	btfsc	status,0,c
  1450   0013EE  EFFB  F009         	goto	u2071
  1451   0013F2  EFFD  F009         	goto	u2070
  1452   0013F6                     u2071:
  1453   0013F6  EF09  F00A         	goto	l956
  1454   0013FA                     u2070:
  1455   0013FA  0E00               	movlw	0
  1456   0013FC  6E31               	movwf	___flmul@prod^0,c
  1457   0013FE  0E00               	movlw	0
  1458   001400  6E32               	movwf	(___flmul@prod+1)^0,c
  1459   001402  0E00               	movlw	0
  1460   001404  6E33               	movwf	(___flmul@prod+2)^0,c
  1461   001406  0E00               	movlw	0
  1462   001408  6E34               	movwf	(___flmul@prod+3)^0,c
  1463   00140A  0E00               	movlw	0
  1464   00140C  6E2A               	movwf	___flmul@sign^0,c
  1465   00140E  EF1E  F00A         	goto	l2579
  1466   001412                     l956:
  1467   001412  C035  F030         	movff	___flmul@temp,___flmul@bexp
  1468   001416  0EFF               	movlw	255
  1469   001418  1631               	andwf	___flmul@prod^0,f,c
  1470   00141A  0EFF               	movlw	255
  1471   00141C  1632               	andwf	(___flmul@prod+1)^0,f,c
  1472   00141E  0E7F               	movlw	127
  1473   001420  1633               	andwf	(___flmul@prod+2)^0,f,c
  1474   001422  0E00               	movlw	0
  1475   001424  1634               	andwf	(___flmul@prod+3)^0,f,c
  1476   001426  A030               	btfss	___flmul@bexp^0,0,c
  1477   001428  EF18  F00A         	goto	u2081
  1478   00142C  EF1A  F00A         	goto	u2080
  1479   001430                     u2081:
  1480   001430  EF1B  F00A         	goto	l2577
  1481   001434                     u2080:
  1482   001434  8E33               	bsf	(___flmul@prod+2)^0,7,c
  1483   001436                     l2577:
  1484   001436  90D8               	bcf	status,0,c
  1485   001438  3030               	rrcf	___flmul@bexp^0,w,c
  1486   00143A  6E34               	movwf	(___flmul@prod+3)^0,c
  1487   00143C                     l2579:
  1488   00143C  502A               	movf	___flmul@sign^0,w,c
  1489   00143E  1234               	iorwf	(___flmul@prod+3)^0,f,c
  1490   001440  C031  F01E         	movff	___flmul@prod,?___flmul
  1491   001444  C032  F01F         	movff	___flmul@prod+1,?___flmul+1
  1492   001448  C033  F020         	movff	___flmul@prod+2,?___flmul+2
  1493   00144C  C034  F021         	movff	___flmul@prod+3,?___flmul+3
  1494   001450                     l943:
  1495   001450  0012               	return		;funcret
  1496   001452                     __end_of___flmul:
  1497                           	callstack 0
  1498                           
  1499 ;; *************** function ___fldiv *****************
  1500 ;; Defined at:
  1501 ;;		line 11 in file "C:\Program Files\Microchip\xc8\v2.40\pic\sources\c99\common\sprcdiv.c"
  1502 ;; Parameters:    Size  Location     Type
  1503 ;;  b               4    4[COMRAM] unsigned char 
  1504 ;;  a               4    8[COMRAM] unsigned char 
  1505 ;; Auto vars:     Size  Location     Type
  1506 ;;  grs             4   23[COMRAM] unsigned long 
  1507 ;;  rem             4   16[COMRAM] unsigned long 
  1508 ;;  new_exp         2   21[COMRAM] short 
  1509 ;;  aexp            1   28[COMRAM] unsigned char 
  1510 ;;  bexp            1   27[COMRAM] unsigned char 
  1511 ;;  sign            1   20[COMRAM] unsigned char 
  1512 ;; Return value:  Size  Location     Type
  1513 ;;                  4    4[COMRAM] unsigned char 
  1514 ;; Registers used:
  1515 ;;		wreg, status,2, status,0
  1516 ;; Tracked objects:
  1517 ;;		On entry : 0/0
  1518 ;;		On exit  : 0/0
  1519 ;;		Unchanged: 0/0
  1520 ;; Data sizes:     COMRAM   BANK0   BANK1   BANK2   BANK3   BANK4   BANK5   BANK6   BANK7   BANK8   BANK9  BANK10  BANK1
      +1  BANK12  BANK13  BANK14
  1521 ;;      Params:         8       0       0       0       0       0       0       0       0       0       0       0       
      +0       0       0       0
  1522 ;;      Locals:        13       0       0       0       0       0       0       0       0       0       0       0       
      +0       0       0       0
  1523 ;;      Temps:          4       0       0       0       0       0       0       0       0       0       0       0       
      +0       0       0       0
  1524 ;;      Totals:        25       0       0       0       0       0       0       0       0       0       0       0       
      +0       0       0       0
  1525 ;;Total ram usage:       25 bytes
  1526 ;; Hardware stack levels used: 1
  1527 ;; Hardware stack levels required when called: 4
  1528 ;; This function calls:
  1529 ;;		Nothing
  1530 ;; This function is called by:
  1531 ;;		_trouver_CPPR
  1532 ;; This function uses a non-reentrant model
  1533 ;;
  1534                           
  1535                           	psect	text5
  1536   001452                     __ptext5:
  1537                           	callstack 0
  1538   001452                     ___fldiv:
  1539                           	callstack 25
  1540   001452  5008               	movf	(___fldiv@b+3)^0,w,c
  1541   001454  0B80               	andlw	128
  1542   001456  6E15               	movwf	___fldiv@sign^0,c
  1543   001458  5008               	movf	(___fldiv@b+3)^0,w,c
  1544   00145A  2408               	addwf	(___fldiv@b+3)^0,w,c
  1545   00145C  6E1C               	movwf	___fldiv@bexp^0,c
  1546   00145E  AE07               	btfss	(___fldiv@b+2)^0,7,c
  1547   001460  EF34  F00A         	goto	u1671
  1548   001464  EF36  F00A         	goto	u1670
  1549   001468                     u1671:
  1550   001468  EF37  F00A         	goto	l2323
  1551   00146C                     u1670:
  1552   00146C  801C               	bsf	___fldiv@bexp^0,0,c
  1553   00146E                     l2323:
  1554   00146E  501C               	movf	___fldiv@bexp^0,w,c
  1555   001470  B4D8               	btfsc	status,2,c
  1556   001472  EF3D  F00A         	goto	u1681
  1557   001476  EF3F  F00A         	goto	u1680
  1558   00147A                     u1681:
  1559   00147A  EF54  F00A         	goto	l2333
  1560   00147E                     u1680:
  1561   00147E  281C               	incf	___fldiv@bexp^0,w,c
  1562   001480  A4D8               	btfss	status,2,c
  1563   001482  EF45  F00A         	goto	u1691
  1564   001486  EF47  F00A         	goto	u1690
  1565   00148A                     u1691:
  1566   00148A  EF4F  F00A         	goto	l2329
  1567   00148E                     u1690:
  1568   00148E  0E00               	movlw	0
  1569   001490  6E05               	movwf	___fldiv@b^0,c
  1570   001492  0E00               	movlw	0
  1571   001494  6E06               	movwf	(___fldiv@b+1)^0,c
  1572   001496  0E00               	movlw	0
  1573   001498  6E07               	movwf	(___fldiv@b+2)^0,c
  1574   00149A  0E00               	movlw	0
  1575   00149C  6E08               	movwf	(___fldiv@b+3)^0,c
  1576   00149E                     l2329:
  1577   00149E  8E07               	bsf	(___fldiv@b+2)^0,7,c
  1578   0014A0  0E00               	movlw	0
  1579   0014A2  6E08               	movwf	(___fldiv@b+3)^0,c
  1580   0014A4  EF5C  F00A         	goto	l2335
  1581   0014A8                     l2333:
  1582   0014A8  0E00               	movlw	0
  1583   0014AA  6E05               	movwf	___fldiv@b^0,c
  1584   0014AC  0E00               	movlw	0
  1585   0014AE  6E06               	movwf	(___fldiv@b+1)^0,c
  1586   0014B0  0E00               	movlw	0
  1587   0014B2  6E07               	movwf	(___fldiv@b+2)^0,c
  1588   0014B4  0E00               	movlw	0
  1589   0014B6  6E08               	movwf	(___fldiv@b+3)^0,c
  1590   0014B8                     l2335:
  1591   0014B8  500C               	movf	(___fldiv@a+3)^0,w,c
  1592   0014BA  0B80               	andlw	128
  1593   0014BC  1A15               	xorwf	___fldiv@sign^0,f,c
  1594   0014BE  500C               	movf	(___fldiv@a+3)^0,w,c
  1595   0014C0  240C               	addwf	(___fldiv@a+3)^0,w,c
  1596   0014C2  6E1D               	movwf	___fldiv@aexp^0,c
  1597   0014C4  AE0B               	btfss	(___fldiv@a+2)^0,7,c
  1598   0014C6  EF67  F00A         	goto	u1701
  1599   0014CA  EF69  F00A         	goto	u1700
  1600   0014CE                     u1701:
  1601   0014CE  EF6A  F00A         	goto	l2343
  1602   0014D2                     u1700:
  1603   0014D2  801D               	bsf	___fldiv@aexp^0,0,c
  1604   0014D4                     l2343:
  1605   0014D4  501D               	movf	___fldiv@aexp^0,w,c
  1606   0014D6  B4D8               	btfsc	status,2,c
  1607   0014D8  EF70  F00A         	goto	u1711
  1608   0014DC  EF72  F00A         	goto	u1710
  1609   0014E0                     u1711:
  1610   0014E0  EF87  F00A         	goto	l2353
  1611   0014E4                     u1710:
  1612   0014E4  281D               	incf	___fldiv@aexp^0,w,c
  1613   0014E6  A4D8               	btfss	status,2,c
  1614   0014E8  EF78  F00A         	goto	u1721
  1615   0014EC  EF7A  F00A         	goto	u1720
  1616   0014F0                     u1721:
  1617   0014F0  EF82  F00A         	goto	l2349
  1618   0014F4                     u1720:
  1619   0014F4  0E00               	movlw	0
  1620   0014F6  6E09               	movwf	___fldiv@a^0,c
  1621   0014F8  0E00               	movlw	0
  1622   0014FA  6E0A               	movwf	(___fldiv@a+1)^0,c
  1623   0014FC  0E00               	movlw	0
  1624   0014FE  6E0B               	movwf	(___fldiv@a+2)^0,c
  1625   001500  0E00               	movlw	0
  1626   001502  6E0C               	movwf	(___fldiv@a+3)^0,c
  1627   001504                     l2349:
  1628   001504  8E0B               	bsf	(___fldiv@a+2)^0,7,c
  1629   001506  0E00               	movlw	0
  1630   001508  6E0C               	movwf	(___fldiv@a+3)^0,c
  1631   00150A  EF8F  F00A         	goto	l2355
  1632   00150E                     l2353:
  1633   00150E  0E00               	movlw	0
  1634   001510  6E09               	movwf	___fldiv@a^0,c
  1635   001512  0E00               	movlw	0
  1636   001514  6E0A               	movwf	(___fldiv@a+1)^0,c
  1637   001516  0E00               	movlw	0
  1638   001518  6E0B               	movwf	(___fldiv@a+2)^0,c
  1639   00151A  0E00               	movlw	0
  1640   00151C  6E0C               	movwf	(___fldiv@a+3)^0,c
  1641   00151E                     l2355:
  1642   00151E  5009               	movf	___fldiv@a^0,w,c
  1643   001520  100A               	iorwf	(___fldiv@a+1)^0,w,c
  1644   001522  100B               	iorwf	(___fldiv@a+2)^0,w,c
  1645   001524  100C               	iorwf	(___fldiv@a+3)^0,w,c
  1646   001526  A4D8               	btfss	status,2,c
  1647   001528  EF98  F00A         	goto	u1731
  1648   00152C  EF9A  F00A         	goto	u1730
  1649   001530                     u1731:
  1650   001530  EFB2  F00A         	goto	l2367
  1651   001534                     u1730:
  1652   001534  0E00               	movlw	0
  1653   001536  6E05               	movwf	___fldiv@b^0,c
  1654   001538  0E00               	movlw	0
  1655   00153A  6E06               	movwf	(___fldiv@b+1)^0,c
  1656   00153C  0E00               	movlw	0
  1657   00153E  6E07               	movwf	(___fldiv@b+2)^0,c
  1658   001540  0E00               	movlw	0
  1659   001542  6E08               	movwf	(___fldiv@b+3)^0,c
  1660   001544  0E80               	movlw	128
  1661   001546  1207               	iorwf	(___fldiv@b+2)^0,f,c
  1662   001548  0E7F               	movlw	127
  1663   00154A  1208               	iorwf	(___fldiv@b+3)^0,f,c
  1664   00154C                     l2361:
  1665   00154C  5015               	movf	___fldiv@sign^0,w,c
  1666   00154E  1208               	iorwf	(___fldiv@b+3)^0,f,c
  1667   001550  C005  F005         	movff	___fldiv@b,?___fldiv
  1668   001554  C006  F006         	movff	___fldiv@b+1,?___fldiv+1
  1669   001558  C007  F007         	movff	___fldiv@b+2,?___fldiv+2
  1670   00155C  C008  F008         	movff	___fldiv@b+3,?___fldiv+3
  1671   001560  EFF5  F00B         	goto	l907
  1672   001564                     l2367:
  1673   001564  501C               	movf	___fldiv@bexp^0,w,c
  1674   001566  A4D8               	btfss	status,2,c
  1675   001568  EFB8  F00A         	goto	u1741
  1676   00156C  EFBA  F00A         	goto	u1740
  1677   001570                     u1741:
  1678   001570  EFC4  F00A         	goto	l2375
  1679   001574                     u1740:
  1680   001574  0E00               	movlw	0
  1681   001576  6E05               	movwf	?___fldiv^0,c
  1682   001578  0E00               	movlw	0
  1683   00157A  6E06               	movwf	(?___fldiv+1)^0,c
  1684   00157C  0E00               	movlw	0
  1685   00157E  6E07               	movwf	(?___fldiv+2)^0,c
  1686   001580  0E00               	movlw	0
  1687   001582  6E08               	movwf	(?___fldiv+3)^0,c
  1688   001584  EFF5  F00B         	goto	l907
  1689   001588                     l2375:
  1690   001588  501D               	movf	___fldiv@aexp^0,w,c
  1691   00158A  C01C  F00D         	movff	___fldiv@bexp,??___fldiv
  1692   00158E  6A0E               	clrf	(??___fldiv+1)^0,c
  1693   001590  5E0D               	subwf	??___fldiv^0,f,c
  1694   001592  0E00               	movlw	0
  1695   001594  5A0E               	subwfb	(??___fldiv+1)^0,f,c
  1696   001596  0E7F               	movlw	127
  1697   001598  240D               	addwf	??___fldiv^0,w,c
  1698   00159A  6E16               	movwf	___fldiv@new_exp^0,c
  1699   00159C  0E00               	movlw	0
  1700   00159E  200E               	addwfc	(??___fldiv+1)^0,w,c
  1701   0015A0  6E17               	movwf	(___fldiv@new_exp+1)^0,c
  1702   0015A2  C005  F011         	movff	___fldiv@b,___fldiv@rem
  1703   0015A6  C006  F012         	movff	___fldiv@b+1,___fldiv@rem+1
  1704   0015AA  C007  F013         	movff	___fldiv@b+2,___fldiv@rem+2
  1705   0015AE  C008  F014         	movff	___fldiv@b+3,___fldiv@rem+3
  1706   0015B2  0E00               	movlw	0
  1707   0015B4  6E05               	movwf	___fldiv@b^0,c
  1708   0015B6  0E00               	movlw	0
  1709   0015B8  6E06               	movwf	(___fldiv@b+1)^0,c
  1710   0015BA  0E00               	movlw	0
  1711   0015BC  6E07               	movwf	(___fldiv@b+2)^0,c
  1712   0015BE  0E00               	movlw	0
  1713   0015C0  6E08               	movwf	(___fldiv@b+3)^0,c
  1714   0015C2  0E00               	movlw	0
  1715   0015C4  6E18               	movwf	___fldiv@grs^0,c
  1716   0015C6  0E00               	movlw	0
  1717   0015C8  6E19               	movwf	(___fldiv@grs+1)^0,c
  1718   0015CA  0E00               	movlw	0
  1719   0015CC  6E1A               	movwf	(___fldiv@grs+2)^0,c
  1720   0015CE  0E00               	movlw	0
  1721   0015D0  6E1B               	movwf	(___fldiv@grs+3)^0,c
  1722   0015D2  0E00               	movlw	0
  1723   0015D4  6E1D               	movwf	___fldiv@aexp^0,c
  1724   0015D6  EF25  F00B         	goto	l909
  1725   0015DA                     l2385:
  1726   0015DA  501D               	movf	___fldiv@aexp^0,w,c
  1727   0015DC  B4D8               	btfsc	status,2,c
  1728   0015DE  EFF3  F00A         	goto	u1751
  1729   0015E2  EFF5  F00A         	goto	u1750
  1730   0015E6                     u1751:
  1731   0015E6  EF0C  F00B         	goto	l2393
  1732   0015EA                     u1750:
  1733   0015EA  90D8               	bcf	status,0,c
  1734   0015EC  3611               	rlcf	___fldiv@rem^0,f,c
  1735   0015EE  3612               	rlcf	(___fldiv@rem+1)^0,f,c
  1736   0015F0  3613               	rlcf	(___fldiv@rem+2)^0,f,c
  1737   0015F2  3614               	rlcf	(___fldiv@rem+3)^0,f,c
  1738   0015F4  90D8               	bcf	status,0,c
  1739   0015F6  3605               	rlcf	___fldiv@b^0,f,c
  1740   0015F8  3606               	rlcf	(___fldiv@b+1)^0,f,c
  1741   0015FA  3607               	rlcf	(___fldiv@b+2)^0,f,c
  1742   0015FC  3608               	rlcf	(___fldiv@b+3)^0,f,c
  1743   0015FE  AE1B               	btfss	(___fldiv@grs+3)^0,7,c
  1744   001600  EF04  F00B         	goto	u1761
  1745   001604  EF06  F00B         	goto	u1760
  1746   001608                     u1761:
  1747   001608  EF07  F00B         	goto	l912
  1748   00160C                     u1760:
  1749   00160C  8005               	bsf	___fldiv@b^0,0,c
  1750   00160E                     l912:
  1751   00160E  90D8               	bcf	status,0,c
  1752   001610  3618               	rlcf	___fldiv@grs^0,f,c
  1753   001612  3619               	rlcf	(___fldiv@grs+1)^0,f,c
  1754   001614  361A               	rlcf	(___fldiv@grs+2)^0,f,c
  1755   001616  361B               	rlcf	(___fldiv@grs+3)^0,f,c
  1756   001618                     l2393:
  1757   001618  5009               	movf	___fldiv@a^0,w,c
  1758   00161A  5C11               	subwf	___fldiv@rem^0,w,c
  1759   00161C  500A               	movf	(___fldiv@a+1)^0,w,c
  1760   00161E  5812               	subwfb	(___fldiv@rem+1)^0,w,c
  1761   001620  500B               	movf	(___fldiv@a+2)^0,w,c
  1762   001622  5813               	subwfb	(___fldiv@rem+2)^0,w,c
  1763   001624  500C               	movf	(___fldiv@a+3)^0,w,c
  1764   001626  5814               	subwfb	(___fldiv@rem+3)^0,w,c
  1765   001628  A0D8               	btfss	status,0,c
  1766   00162A  EF19  F00B         	goto	u1771
  1767   00162E  EF1B  F00B         	goto	u1770
  1768   001632                     u1771:
  1769   001632  EF24  F00B         	goto	l2399
  1770   001636                     u1770:
  1771   001636  8C1B               	bsf	(___fldiv@grs+3)^0,6,c
  1772   001638  5009               	movf	___fldiv@a^0,w,c
  1773   00163A  5E11               	subwf	___fldiv@rem^0,f,c
  1774   00163C  500A               	movf	(___fldiv@a+1)^0,w,c
  1775   00163E  5A12               	subwfb	(___fldiv@rem+1)^0,f,c
  1776   001640  500B               	movf	(___fldiv@a+2)^0,w,c
  1777   001642  5A13               	subwfb	(___fldiv@rem+2)^0,f,c
  1778   001644  500C               	movf	(___fldiv@a+3)^0,w,c
  1779   001646  5A14               	subwfb	(___fldiv@rem+3)^0,f,c
  1780   001648                     l2399:
  1781   001648  2A1D               	incf	___fldiv@aexp^0,f,c
  1782   00164A                     l909:
  1783   00164A  0E19               	movlw	25
  1784   00164C  641D               	cpfsgt	___fldiv@aexp^0,c
  1785   00164E  EF2B  F00B         	goto	u1781
  1786   001652  EF2D  F00B         	goto	u1780
  1787   001656                     u1781:
  1788   001656  EFED  F00A         	goto	l2385
  1789   00165A                     u1780:
  1790   00165A  5011               	movf	___fldiv@rem^0,w,c
  1791   00165C  1012               	iorwf	(___fldiv@rem+1)^0,w,c
  1792   00165E  1013               	iorwf	(___fldiv@rem+2)^0,w,c
  1793   001660  1014               	iorwf	(___fldiv@rem+3)^0,w,c
  1794   001662  B4D8               	btfsc	status,2,c
  1795   001664  EF36  F00B         	goto	u1791
  1796   001668  EF38  F00B         	goto	u1790
  1797   00166C                     u1791:
  1798   00166C  EF50  F00B         	goto	l2411
  1799   001670                     u1790:
  1800   001670  8018               	bsf	___fldiv@grs^0,0,c
  1801   001672  EF50  F00B         	goto	l2411
  1802   001676                     l2405:
  1803   001676  90D8               	bcf	status,0,c
  1804   001678  3605               	rlcf	___fldiv@b^0,f,c
  1805   00167A  3606               	rlcf	(___fldiv@b+1)^0,f,c
  1806   00167C  3607               	rlcf	(___fldiv@b+2)^0,f,c
  1807   00167E  3608               	rlcf	(___fldiv@b+3)^0,f,c
  1808   001680  AE1B               	btfss	(___fldiv@grs+3)^0,7,c
  1809   001682  EF45  F00B         	goto	u1801
  1810   001686  EF47  F00B         	goto	u1800
  1811   00168A                     u1801:
  1812   00168A  EF48  F00B         	goto	l918
  1813   00168E                     u1800:
  1814   00168E  8005               	bsf	___fldiv@b^0,0,c
  1815   001690                     l918:
  1816   001690  90D8               	bcf	status,0,c
  1817   001692  3618               	rlcf	___fldiv@grs^0,f,c
  1818   001694  3619               	rlcf	(___fldiv@grs+1)^0,f,c
  1819   001696  361A               	rlcf	(___fldiv@grs+2)^0,f,c
  1820   001698  361B               	rlcf	(___fldiv@grs+3)^0,f,c
  1821   00169A  0616               	decf	___fldiv@new_exp^0,f,c
  1822   00169C  A0D8               	btfss	status,0,c
  1823   00169E  0617               	decf	(___fldiv@new_exp+1)^0,f,c
  1824   0016A0                     l2411:
  1825   0016A0  AE07               	btfss	(___fldiv@b+2)^0,7,c
  1826   0016A2  EF55  F00B         	goto	u1811
  1827   0016A6  EF57  F00B         	goto	u1810
  1828   0016AA                     u1811:
  1829   0016AA  EF3B  F00B         	goto	l2405
  1830   0016AE                     u1810:
  1831   0016AE  0E00               	movlw	0
  1832   0016B0  6E1D               	movwf	___fldiv@aexp^0,c
  1833   0016B2  AE1B               	btfss	(___fldiv@grs+3)^0,7,c
  1834   0016B4  EF5E  F00B         	goto	u1821
  1835   0016B8  EF60  F00B         	goto	u1820
  1836   0016BC                     u1821:
  1837   0016BC  EF84  F00B         	goto	l920
  1838   0016C0                     u1820:
  1839   0016C0  0EFF               	movlw	255
  1840   0016C2  1418               	andwf	___fldiv@grs^0,w,c
  1841   0016C4  6E0D               	movwf	??___fldiv^0,c
  1842   0016C6  0EFF               	movlw	255
  1843   0016C8  1419               	andwf	(___fldiv@grs+1)^0,w,c
  1844   0016CA  6E0E               	movwf	(??___fldiv+1)^0,c
  1845   0016CC  0EFF               	movlw	255
  1846   0016CE  141A               	andwf	(___fldiv@grs+2)^0,w,c
  1847   0016D0  6E0F               	movwf	(??___fldiv+2)^0,c
  1848   0016D2  0E7F               	movlw	127
  1849   0016D4  141B               	andwf	(___fldiv@grs+3)^0,w,c
  1850   0016D6  6E10               	movwf	(??___fldiv+3)^0,c
  1851   0016D8  500D               	movf	??___fldiv^0,w,c
  1852   0016DA  100E               	iorwf	(??___fldiv+1)^0,w,c
  1853   0016DC  100F               	iorwf	(??___fldiv+2)^0,w,c
  1854   0016DE  1010               	iorwf	(??___fldiv+3)^0,w,c
  1855   0016E0  B4D8               	btfsc	status,2,c
  1856   0016E2  EF75  F00B         	goto	u1831
  1857   0016E6  EF77  F00B         	goto	u1830
  1858   0016EA                     u1831:
  1859   0016EA  EF7B  F00B         	goto	l921
  1860   0016EE                     u1830:
  1861   0016EE                     l2419:
  1862   0016EE  0E01               	movlw	1
  1863   0016F0  6E1D               	movwf	___fldiv@aexp^0,c
  1864   0016F2  EF84  F00B         	goto	l920
  1865   0016F6                     l921:
  1866   0016F6  A005               	btfss	___fldiv@b^0,0,c
  1867   0016F8  EF80  F00B         	goto	u1841
  1868   0016FC  EF82  F00B         	goto	u1840
  1869   001700                     u1841:
  1870   001700  EF84  F00B         	goto	l920
  1871   001704                     u1840:
  1872   001704  EF77  F00B         	goto	l2419
  1873   001708                     l920:
  1874   001708  501D               	movf	___fldiv@aexp^0,w,c
  1875   00170A  B4D8               	btfsc	status,2,c
  1876   00170C  EF8A  F00B         	goto	u1851
  1877   001710  EF8C  F00B         	goto	u1850
  1878   001714                     u1851:
  1879   001714  EFB0  F00B         	goto	l2431
  1880   001718                     u1850:
  1881   001718  0E01               	movlw	1
  1882   00171A  2605               	addwf	___fldiv@b^0,f,c
  1883   00171C  0E00               	movlw	0
  1884   00171E  2206               	addwfc	(___fldiv@b+1)^0,f,c
  1885   001720  2207               	addwfc	(___fldiv@b+2)^0,f,c
  1886   001722  2208               	addwfc	(___fldiv@b+3)^0,f,c
  1887   001724  A008               	btfss	(___fldiv@b+3)^0,0,c
  1888   001726  EF97  F00B         	goto	u1861
  1889   00172A  EF99  F00B         	goto	u1860
  1890   00172E                     u1861:
  1891   00172E  EFB0  F00B         	goto	l2431
  1892   001732                     u1860:
  1893   001732  C005  F00D         	movff	___fldiv@b,??___fldiv
  1894   001736  C006  F00E         	movff	___fldiv@b+1,??___fldiv+1
  1895   00173A  C007  F00F         	movff	___fldiv@b+2,??___fldiv+2
  1896   00173E  C008  F010         	movff	___fldiv@b+3,??___fldiv+3
  1897   001742  3410               	rlcf	(??___fldiv+3)^0,w,c
  1898   001744  3210               	rrcf	(??___fldiv+3)^0,f,c
  1899   001746  320F               	rrcf	(??___fldiv+2)^0,f,c
  1900   001748  320E               	rrcf	(??___fldiv+1)^0,f,c
  1901   00174A  320D               	rrcf	??___fldiv^0,f,c
  1902   00174C  C00D  F005         	movff	??___fldiv,___fldiv@b
  1903   001750  C00E  F006         	movff	??___fldiv+1,___fldiv@b+1
  1904   001754  C00F  F007         	movff	??___fldiv+2,___fldiv@b+2
  1905   001758  C010  F008         	movff	??___fldiv+3,___fldiv@b+3
  1906   00175C  4A16               	infsnz	___fldiv@new_exp^0,f,c
  1907   00175E  2A17               	incf	(___fldiv@new_exp+1)^0,f,c
  1908   001760                     l2431:
  1909   001760  BE17               	btfsc	(___fldiv@new_exp+1)^0,7,c
  1910   001762  EFBB  F00B         	goto	u1871
  1911   001766  5017               	movf	(___fldiv@new_exp+1)^0,w,c
  1912   001768  E108               	bnz	u1870
  1913   00176A  2816               	incf	___fldiv@new_exp^0,w,c
  1914   00176C  A0D8               	btfss	status,0,c
  1915   00176E  EFBB  F00B         	goto	u1871
  1916   001772  EFBD  F00B         	goto	u1870
  1917   001776                     u1871:
  1918   001776  EFC8  F00B         	goto	l2435
  1919   00177A                     u1870:
  1920   00177A  0E00               	movlw	0
  1921   00177C  6E17               	movwf	(___fldiv@new_exp+1)^0,c
  1922   00177E  6816               	setf	___fldiv@new_exp^0,c
  1923   001780  0E00               	movlw	0
  1924   001782  6E05               	movwf	___fldiv@b^0,c
  1925   001784  0E00               	movlw	0
  1926   001786  6E06               	movwf	(___fldiv@b+1)^0,c
  1927   001788  0E00               	movlw	0
  1928   00178A  6E07               	movwf	(___fldiv@b+2)^0,c
  1929   00178C  0E00               	movlw	0
  1930   00178E  6E08               	movwf	(___fldiv@b+3)^0,c
  1931   001790                     l2435:
  1932   001790  BE17               	btfsc	(___fldiv@new_exp+1)^0,7,c
  1933   001792  EFD5  F00B         	goto	u1880
  1934   001796  5017               	movf	(___fldiv@new_exp+1)^0,w,c
  1935   001798  E106               	bnz	u1881
  1936   00179A  0416               	decf	___fldiv@new_exp^0,w,c
  1937   00179C  B0D8               	btfsc	status,0,c
  1938   00179E  EFD3  F00B         	goto	u1881
  1939   0017A2  EFD5  F00B         	goto	u1880
  1940   0017A6                     u1881:
  1941   0017A6  EFE3  F00B         	goto	l2439
  1942   0017AA                     u1880:
  1943   0017AA  0E00               	movlw	0
  1944   0017AC  6E17               	movwf	(___fldiv@new_exp+1)^0,c
  1945   0017AE  0E00               	movlw	0
  1946   0017B0  6E16               	movwf	___fldiv@new_exp^0,c
  1947   0017B2  0E00               	movlw	0
  1948   0017B4  6E05               	movwf	___fldiv@b^0,c
  1949   0017B6  0E00               	movlw	0
  1950   0017B8  6E06               	movwf	(___fldiv@b+1)^0,c
  1951   0017BA  0E00               	movlw	0
  1952   0017BC  6E07               	movwf	(___fldiv@b+2)^0,c
  1953   0017BE  0E00               	movlw	0
  1954   0017C0  6E08               	movwf	(___fldiv@b+3)^0,c
  1955   0017C2  0E00               	movlw	0
  1956   0017C4  6E15               	movwf	___fldiv@sign^0,c
  1957   0017C6                     l2439:
  1958   0017C6  C016  F01C         	movff	___fldiv@new_exp,___fldiv@bexp
  1959   0017CA  A01C               	btfss	___fldiv@bexp^0,0,c
  1960   0017CC  EFEA  F00B         	goto	u1891
  1961   0017D0  EFEC  F00B         	goto	u1890
  1962   0017D4                     u1891:
  1963   0017D4  EFEF  F00B         	goto	l2445
  1964   0017D8                     u1890:
  1965   0017D8  8E07               	bsf	(___fldiv@b+2)^0,7,c
  1966   0017DA  EFF0  F00B         	goto	l2447
  1967   0017DE                     l2445:
  1968   0017DE  9E07               	bcf	(___fldiv@b+2)^0,7,c
  1969   0017E0                     l2447:
  1970   0017E0  90D8               	bcf	status,0,c
  1971   0017E2  301C               	rrcf	___fldiv@bexp^0,w,c
  1972   0017E4  6E08               	movwf	(___fldiv@b+3)^0,c
  1973   0017E6  EFA6  F00A         	goto	l2361
  1974   0017EA                     l907:
  1975   0017EA  0012               	return		;funcret
  1976   0017EC                     __end_of___fldiv:
  1977                           	callstack 0
  1978                           
  1979 ;; *************** function _printf *****************
  1980 ;; Defined at:
  1981 ;;		line 5 in file "C:\Program Files\Microchip\xc8\v2.40\pic\sources\c99\common\printf.c"
  1982 ;; Parameters:    Size  Location     Type
  1983 ;;  fmt             2   29[COMRAM] PTR const unsigned char 
  1984 ;;		 -> STR_2(38), STR_1(38), 
  1985 ;; Auto vars:     Size  Location     Type
  1986 ;;  ap              2   31[COMRAM] PTR void [1]
  1987 ;;		 -> ?_printf(2), 
  1988 ;;  ret             2    0        int 
  1989 ;; Return value:  Size  Location     Type
  1990 ;;                  2   29[COMRAM] int 
  1991 ;; Registers used:
  1992 ;;		wreg, fsr1l, fsr1h, fsr2l, fsr2h, status,2, status,0, tblptrl, tblptrh, tblptru, cstack
  1993 ;; Tracked objects:
  1994 ;;		On entry : 0/0
  1995 ;;		On exit  : 0/0
  1996 ;;		Unchanged: 0/0
  1997 ;; Data sizes:     COMRAM   BANK0   BANK1   BANK2   BANK3   BANK4   BANK5   BANK6   BANK7   BANK8   BANK9  BANK10  BANK1
      +1  BANK12  BANK13  BANK14
  1998 ;;      Params:         2       0       0       0       0       0       0       0       0       0       0       0       
      +0       0       0       0
  1999 ;;      Locals:         2       0       0       0       0       0       0       0       0       0       0       0       
      +0       0       0       0
  2000 ;;      Temps:          0       0       0       0       0       0       0       0       0       0       0       0       
      +0       0       0       0
  2001 ;;      Totals:         4       0       0       0       0       0       0       0       0       0       0       0       
      +0       0       0       0
  2002 ;;Total ram usage:        4 bytes
  2003 ;; Hardware stack levels used: 1
  2004 ;; Hardware stack levels required when called: 9
  2005 ;; This function calls:
  2006 ;;		_vfprintf
  2007 ;; This function is called by:
  2008 ;;		_main
  2009 ;; This function uses a non-reentrant model
  2010 ;;
  2011                           
  2012                           	psect	text6
  2013   001EB8                     __ptext6:
  2014                           	callstack 0
  2015   001EB8                     _printf:
  2016                           	callstack 21
  2017   001EB8  0E20               	movlw	low (?_printf+2)
  2018   001EBA  6E20               	movwf	printf@ap^0,c
  2019   001EBC  0E00               	movlw	high (?_printf+2)
  2020   001EBE  6E21               	movwf	(printf@ap+1)^0,c
  2021   001EC0  0E00               	movlw	0
  2022   001EC2  6E16               	movwf	vfprintf@fp^0,c
  2023   001EC4  0E00               	movlw	0
  2024   001EC6  6E17               	movwf	(vfprintf@fp+1)^0,c
  2025   001EC8  C01E  F018         	movff	printf@fmt,vfprintf@fmt
  2026   001ECC  C01F  F019         	movff	printf@fmt+1,vfprintf@fmt+1
  2027   001ED0  0E20               	movlw	low printf@ap
  2028   001ED2  6E1A               	movwf	vfprintf@ap^0,c
  2029   001ED4  0E00               	movlw	high printf@ap
  2030   001ED6  6E1B               	movwf	(vfprintf@ap+1)^0,c
  2031   001ED8  ECC0  F00E         	call	_vfprintf	;wreg free
  2032   001EDC  0012               	return		;funcret
  2033   001EDE                     __end_of_printf:
  2034                           	callstack 0
  2035                           
  2036 ;; *************** function _vfprintf *****************
  2037 ;; Defined at:
  2038 ;;		line 1520 in file "C:\Program Files\Microchip\xc8\v2.40\pic\sources\c99\common\doprnt.c"
  2039 ;; Parameters:    Size  Location     Type
  2040 ;;  fp              2   21[COMRAM] PTR struct _IO_FILE
  2041 ;;		 -> NULL(0), 
  2042 ;;  fmt             2   23[COMRAM] PTR const unsigned char 
  2043 ;;		 -> STR_2(38), STR_1(38), 
  2044 ;;  ap              2   25[COMRAM] PTR PTR void 
  2045 ;;		 -> printf@ap(2), 
  2046 ;; Auto vars:     Size  Location     Type
  2047 ;;  cfmt            2   27[COMRAM] PTR unsigned char 
  2048 ;;		 -> STR_2(38), STR_1(38), 
  2049 ;; Return value:  Size  Location     Type
  2050 ;;                  2   21[COMRAM] int 
  2051 ;; Registers used:
  2052 ;;		wreg, fsr1l, fsr1h, fsr2l, fsr2h, status,2, status,0, tblptrl, tblptrh, tblptru, cstack
  2053 ;; Tracked objects:
  2054 ;;		On entry : 0/0
  2055 ;;		On exit  : 0/0
  2056 ;;		Unchanged: 0/0
  2057 ;; Data sizes:     COMRAM   BANK0   BANK1   BANK2   BANK3   BANK4   BANK5   BANK6   BANK7   BANK8   BANK9  BANK10  BANK1
      +1  BANK12  BANK13  BANK14
  2058 ;;      Params:         6       0       0       0       0       0       0       0       0       0       0       0       
      +0       0       0       0
  2059 ;;      Locals:         2       0       0       0       0       0       0       0       0       0       0       0       
      +0       0       0       0
  2060 ;;      Temps:          0       0       0       0       0       0       0       0       0       0       0       0       
      +0       0       0       0
  2061 ;;      Totals:         8       0       0       0       0       0       0       0       0       0       0       0       
      +0       0       0       0
  2062 ;;Total ram usage:        8 bytes
  2063 ;; Hardware stack levels used: 1
  2064 ;; Hardware stack levels required when called: 8
  2065 ;; This function calls:
  2066 ;;		_vfpfcnvrt
  2067 ;; This function is called by:
  2068 ;;		_printf
  2069 ;; This function uses a non-reentrant model
  2070 ;;
  2071                           
  2072                           	psect	text7
  2073   001D80                     __ptext7:
  2074                           	callstack 0
  2075   001D80                     _vfprintf:
  2076                           	callstack 21
  2077   001D80                     
  2078                           ;C:\Program Files\Microchip\xc8\v2.40\pic\sources\c99\common\doprnt.c: 1520: int vfprint
      +                          f(FILE *fp, const char *fmt, va_list ap);C:\Program Files\Microchip\xc8\v2.40\pic\source
      +                          s\c99\common\doprnt.c: 1521: {;C:\Program Files\Microchip\xc8\v2.40\pic\sources\c99\comm
      +                          on\doprnt.c: 1523:     char *cfmt;;C:\Program Files\Microchip\xc8\v2.40\pic\sources\c99\
      +                          common\doprnt.c: 1525:     cfmt = (char *)fmt;
  2079   001D80  C018  F01C         	movff	vfprintf@fmt,vfprintf@cfmt
  2080   001D84  C019  F01D         	movff	vfprintf@fmt+1,vfprintf@cfmt+1
  2081                           
  2082                           ;C:\Program Files\Microchip\xc8\v2.40\pic\sources\c99\common\doprnt.c: 1529:     while (
      +                          *cfmt) {
  2083   001D88  EFD4  F00E         	goto	l2633
  2084   001D8C                     l2631:
  2085                           
  2086                           ;C:\Program Files\Microchip\xc8\v2.40\pic\sources\c99\common\doprnt.c: 1533:    vfpfcnvr
      +                          t(fp, &cfmt, ap);
  2087   001D8C  C016  F010         	movff	vfprintf@fp,vfpfcnvrt@fp
  2088   001D90  C017  F011         	movff	vfprintf@fp+1,vfpfcnvrt@fp+1
  2089   001D94  0E1C               	movlw	low vfprintf@cfmt
  2090   001D96  6E12               	movwf	vfpfcnvrt@fmt^0,c
  2091   001D98  0E00               	movlw	high vfprintf@cfmt
  2092   001D9A  6E13               	movwf	(vfpfcnvrt@fmt+1)^0,c
  2093   001D9C  C01A  F014         	movff	vfprintf@ap,vfpfcnvrt@ap
  2094   001DA0  C01B  F015         	movff	vfprintf@ap+1,vfpfcnvrt@ap+1
  2095   001DA4  ECF4  F00D         	call	_vfpfcnvrt	;wreg free
  2096   001DA8                     l2633:
  2097                           
  2098                           ;C:\Program Files\Microchip\xc8\v2.40\pic\sources\c99\common\doprnt.c: 1529:     while (
      +                          *cfmt) {
  2099   001DA8  C01C  FFF6         	movff	vfprintf@cfmt,tblptrl
  2100   001DAC  C01D  FFF7         	movff	vfprintf@cfmt+1,tblptrh
  2101   001DB0                     	if	0	;tblptru may be non-zero
  2102   001DB0                     	endif
  2103   001DB0                     	if	0	;tblptru may be non-zero
  2104   001DB0                     	endif
  2105   001DB0  0008               	tblrd		*
  2106   001DB2  50F5               	movf	tablat,w,c
  2107   001DB4  0900               	iorlw	0
  2108   001DB6  A4D8               	btfss	status,2,c
  2109   001DB8  EFE0  F00E         	goto	u2161
  2110   001DBC  EFE2  F00E         	goto	u2160
  2111   001DC0                     u2161:
  2112   001DC0  EFC6  F00E         	goto	l2631
  2113   001DC4                     u2160:
  2114   001DC4                     
  2115                           ;C:\Program Files\Microchip\xc8\v2.40\pic\sources\c99\common\doprnt.c: 1538:  return 0;
  2116   001DC4  0E00               	movlw	0
  2117   001DC6  6E17               	movwf	(?_vfprintf+1)^0,c
  2118   001DC8  0E00               	movlw	0
  2119   001DCA  6E16               	movwf	?_vfprintf^0,c
  2120   001DCC  0012               	return		;funcret
  2121   001DCE                     __end_of_vfprintf:
  2122                           	callstack 0
  2123                           
  2124 ;; *************** function _vfpfcnvrt *****************
  2125 ;; Defined at:
  2126 ;;		line 1007 in file "C:\Program Files\Microchip\xc8\v2.40\pic\sources\c99\common\doprnt.c"
  2127 ;; Parameters:    Size  Location     Type
  2128 ;;  fp              2   15[COMRAM] PTR struct _IO_FILE
  2129 ;;		 -> NULL(0), 
  2130 ;;  fmt             2   17[COMRAM] PTR PTR unsigned char 
  2131 ;;		 -> vfprintf@cfmt(2), 
  2132 ;;  ap              2   19[COMRAM] PTR PTR void 
  2133 ;;		 -> printf@ap(2), 
  2134 ;; Auto vars:     Size  Location     Type
  2135 ;;  convarg         8    0        struct .
  2136 ;;  cp              3    0        PTR unsigned char 
  2137 ;;  i               2    0        int 
  2138 ;;  done            2    0        int 
  2139 ;;  c               1    0        unsigned char 
  2140 ;; Return value:  Size  Location     Type
  2141 ;;                  1    wreg      void 
  2142 ;; Registers used:
  2143 ;;		wreg, fsr1l, fsr1h, fsr2l, fsr2h, status,2, status,0, tblptrl, tblptrh, tblptru, cstack
  2144 ;; Tracked objects:
  2145 ;;		On entry : 0/0
  2146 ;;		On exit  : 0/0
  2147 ;;		Unchanged: 0/0
  2148 ;; Data sizes:     COMRAM   BANK0   BANK1   BANK2   BANK3   BANK4   BANK5   BANK6   BANK7   BANK8   BANK9  BANK10  BANK1
      +1  BANK12  BANK13  BANK14
  2149 ;;      Params:         6       0       0       0       0       0       0       0       0       0       0       0       
      +0       0       0       0
  2150 ;;      Locals:         0       0       0       0       0       0       0       0       0       0       0       0       
      +0       0       0       0
  2151 ;;      Temps:          0       0       0       0       0       0       0       0       0       0       0       0       
      +0       0       0       0
  2152 ;;      Totals:         6       0       0       0       0       0       0       0       0       0       0       0       
      +0       0       0       0
  2153 ;;Total ram usage:        6 bytes
  2154 ;; Hardware stack levels used: 1
  2155 ;; Hardware stack levels required when called: 7
  2156 ;; This function calls:
  2157 ;;		_fputc
  2158 ;; This function is called by:
  2159 ;;		_vfprintf
  2160 ;; This function uses a non-reentrant model
  2161 ;;
  2162                           
  2163                           	psect	text8
  2164   001BE8                     __ptext8:
  2165                           	callstack 0
  2166   001BE8                     _vfpfcnvrt:
  2167                           	callstack 21
  2168   001BE8                     
  2169                           ;C:\Program Files\Microchip\xc8\v2.40\pic\sources\c99\common\doprnt.c: 1007: vfpfcnvrt(F
      +                          ILE *fp, char *fmt[], va_list ap);C:\Program Files\Microchip\xc8\v2.40\pic\sources\c99\c
      +                          ommon\doprnt.c: 1008: {;C:\Program Files\Microchip\xc8\v2.40\pic\sources\c99\common\dopr
      +                          nt.c: 1009:     char c, *cp;;C:\Program Files\Microchip\xc8\v2.40\pic\sources\c99\common
      +                          \doprnt.c: 1010:     int done, i;;C:\Program Files\Microchip\xc8\v2.40\pic\sources\c99\c
      +                          ommon\doprnt.c: 1016:  } convarg;;C:\Program Files\Microchip\xc8\v2.40\pic\sources\c99\c
      +                          ommon\doprnt.c: 1019:     if ((*fmt)[0] == '%') {
  2170   001BE8  C012  FFD9         	movff	vfpfcnvrt@fmt,fsr2l
  2171   001BEC  C013  FFDA         	movff	vfpfcnvrt@fmt+1,fsr2h
  2172   001BF0  CFDE FFF6          	movff	postinc2,tblptrl
  2173   001BF4  CFDD FFF7          	movff	postdec2,tblptrh
  2174   001BF8                     	if	0	;tblptru may be non-zero
  2175   001BF8                     	endif
  2176   001BF8                     	if	0	;tblptru may be non-zero
  2177   001BF8                     	endif
  2178   001BF8  0008               	tblrd		*
  2179   001BFA  50F5               	movf	tablat,w,c
  2180   001BFC  0A25               	xorlw	37
  2181   001BFE  A4D8               	btfss	status,2,c
  2182   001C00  EF04  F00E         	goto	u1661
  2183   001C04  EF06  F00E         	goto	u1660
  2184   001C08                     u1661:
  2185   001C08  EF1E  F00E         	goto	l2267
  2186   001C0C                     u1660:
  2187   001C0C                     
  2188                           ;C:\Program Files\Microchip\xc8\v2.40\pic\sources\c99\common\doprnt.c: 1020:         ++*
      +                          fmt;
  2189   001C0C  C012  FFD9         	movff	vfpfcnvrt@fmt,fsr2l
  2190   001C10  C013  FFDA         	movff	vfpfcnvrt@fmt+1,fsr2h
  2191   001C14  2ADE               	incf	postinc2,f,c
  2192   001C16  0E00               	movlw	0
  2193   001C18  22DD               	addwfc	postdec2,f,c
  2194   001C1A                     
  2195                           ;C:\Program Files\Microchip\xc8\v2.40\pic\sources\c99\common\doprnt.c: 1022:         fla
      +                          gs = width = 0;
  2196   001C1A  0E00               	movlw	0
  2197   001C1C  6E48               	movwf	(_width+1)^0,c
  2198   001C1E  0E00               	movlw	0
  2199   001C20  6E47               	movwf	_width^0,c
  2200   001C22  C047  F04B         	movff	_width,_flags
  2201   001C26                     
  2202                           ;C:\Program Files\Microchip\xc8\v2.40\pic\sources\c99\common\doprnt.c: 1023:         pre
      +                          c = -1;
  2203   001C26  6849               	setf	_prec^0,c
  2204   001C28  684A               	setf	(_prec+1)^0,c
  2205   001C2A                     l2263:
  2206                           
  2207                           ;C:\Program Files\Microchip\xc8\v2.40\pic\sources\c99\common\doprnt.c: 1509:         ++*
      +                          fmt;
  2208   001C2A  C012  FFD9         	movff	vfpfcnvrt@fmt,fsr2l
  2209   001C2E  C013  FFDA         	movff	vfpfcnvrt@fmt+1,fsr2h
  2210   001C32  2ADE               	incf	postinc2,f,c
  2211   001C34  0E00               	movlw	0
  2212   001C36  22DD               	addwfc	postdec2,f,c
  2213   001C38  EF32  F00E         	goto	l1029
  2214   001C3C                     l2267:
  2215                           
  2216                           ;C:\Program Files\Microchip\xc8\v2.40\pic\sources\c99\common\doprnt.c: 1514:     fputc((
      +                          int)(*fmt)[0], fp);
  2217   001C3C  C012  FFD9         	movff	vfpfcnvrt@fmt,fsr2l
  2218   001C40  C013  FFDA         	movff	vfpfcnvrt@fmt+1,fsr2h
  2219   001C44  CFDE FFF6          	movff	postinc2,tblptrl
  2220   001C48  CFDD FFF7          	movff	postdec2,tblptrh
  2221   001C4C                     	if	0	;tblptru may be non-zero
  2222   001C4C                     	endif
  2223   001C4C                     	if	0	;tblptru may be non-zero
  2224   001C4C                     	endif
  2225   001C4C  0008               	tblrd		*
  2226   001C4E  50F5               	movf	tablat,w,c
  2227   001C50  6E07               	movwf	fputc@c^0,c
  2228   001C52  6A08               	clrf	(fputc@c+1)^0,c
  2229   001C54  C010  F009         	movff	vfpfcnvrt@fp,fputc@fp
  2230   001C58  C011  F00A         	movff	vfpfcnvrt@fp+1,fputc@fp+1
  2231   001C5C  ECA9  F00D         	call	_fputc	;wreg free
  2232   001C60  EF15  F00E         	goto	l2263
  2233   001C64                     l1029:
  2234   001C64  0012               	return		;funcret
  2235   001C66                     __end_of_vfpfcnvrt:
  2236                           	callstack 0
  2237                           
  2238 ;; *************** function _fputc *****************
  2239 ;; Defined at:
  2240 ;;		line 8 in file "C:\Program Files\Microchip\xc8\v2.40\pic\sources\c99\common\nf_fputc.c"
  2241 ;; Parameters:    Size  Location     Type
  2242 ;;  c               2    6[COMRAM] int 
  2243 ;;  fp              2    8[COMRAM] PTR struct _IO_FILE
  2244 ;;		 -> NULL(0), 
  2245 ;; Auto vars:     Size  Location     Type
  2246 ;;		None
  2247 ;; Return value:  Size  Location     Type
  2248 ;;                  2    6[COMRAM] int 
  2249 ;; Registers used:
  2250 ;;		wreg, fsr1l, fsr1h, fsr2l, fsr2h, status,2, status,0, cstack
  2251 ;; Tracked objects:
  2252 ;;		On entry : 0/0
  2253 ;;		On exit  : 0/0
  2254 ;;		Unchanged: 0/0
  2255 ;; Data sizes:     COMRAM   BANK0   BANK1   BANK2   BANK3   BANK4   BANK5   BANK6   BANK7   BANK8   BANK9  BANK10  BANK1
      +1  BANK12  BANK13  BANK14
  2256 ;;      Params:         4       0       0       0       0       0       0       0       0       0       0       0       
      +0       0       0       0
  2257 ;;      Locals:         0       0       0       0       0       0       0       0       0       0       0       0       
      +0       0       0       0
  2258 ;;      Temps:          5       0       0       0       0       0       0       0       0       0       0       0       
      +0       0       0       0
  2259 ;;      Totals:         9       0       0       0       0       0       0       0       0       0       0       0       
      +0       0       0       0
  2260 ;;Total ram usage:        9 bytes
  2261 ;; Hardware stack levels used: 1
  2262 ;; Hardware stack levels required when called: 6
  2263 ;; This function calls:
  2264 ;;		_putch
  2265 ;; This function is called by:
  2266 ;;		_vfpfcnvrt
  2267 ;; This function uses a non-reentrant model
  2268 ;;
  2269                           
  2270                           	psect	text9
  2271   001B52                     __ptext9:
  2272                           	callstack 0
  2273   001B52                     _fputc:
  2274                           	callstack 21
  2275   001B52  5009               	movf	fputc@fp^0,w,c
  2276   001B54  100A               	iorwf	(fputc@fp+1)^0,w,c
  2277   001B56  B4D8               	btfsc	status,2,c
  2278   001B58  EFB0  F00D         	goto	u1621
  2279   001B5C  EFB2  F00D         	goto	u1620
  2280   001B60                     u1621:
  2281   001B60  EFBB  F00D         	goto	l2235
  2282   001B64                     u1620:
  2283   001B64  5009               	movf	fputc@fp^0,w,c
  2284   001B66  100A               	iorwf	(fputc@fp+1)^0,w,c
  2285   001B68  A4D8               	btfss	status,2,c
  2286   001B6A  EFB9  F00D         	goto	u1631
  2287   001B6E  EFBB  F00D         	goto	u1630
  2288   001B72                     u1631:
  2289   001B72  EFC0  F00D         	goto	l2237
  2290   001B76                     u1630:
  2291   001B76                     l2235:
  2292   001B76  5007               	movf	fputc@c^0,w,c
  2293   001B78  ECA3  F00F         	call	_putch
  2294   001B7C  EFF3  F00D         	goto	l1047
  2295   001B80                     l2237:
  2296   001B80  EE20 F009          	lfsr	2,9
  2297   001B84  5009               	movf	fputc@fp^0,w,c
  2298   001B86  26D9               	addwf	fsr2l,f,c
  2299   001B88  500A               	movf	(fputc@fp+1)^0,w,c
  2300   001B8A  22DA               	addwfc	fsr2h,f,c
  2301   001B8C  50DE               	movf	postinc2,w,c
  2302   001B8E  10DE               	iorwf	postinc2,w,c
  2303   001B90  B4D8               	btfsc	status,2,c
  2304   001B92  EFCD  F00D         	goto	u1641
  2305   001B96  EFCF  F00D         	goto	u1640
  2306   001B9A                     u1641:
  2307   001B9A  EFEA  F00D         	goto	l2241
  2308   001B9E                     u1640:
  2309   001B9E  EE20 F009          	lfsr	2,9
  2310   001BA2  5009               	movf	fputc@fp^0,w,c
  2311   001BA4  26D9               	addwf	fsr2l,f,c
  2312   001BA6  500A               	movf	(fputc@fp+1)^0,w,c
  2313   001BA8  22DA               	addwfc	fsr2h,f,c
  2314   001BAA  EE10 F003          	lfsr	1,3
  2315   001BAE  5009               	movf	fputc@fp^0,w,c
  2316   001BB0  26E1               	addwf	fsr1l,f,c
  2317   001BB2  500A               	movf	(fputc@fp+1)^0,w,c
  2318   001BB4  22E2               	addwfc	fsr1h,f,c
  2319   001BB6  50DE               	movf	postinc2,w,c
  2320   001BB8  5CE6               	subwf	postinc1,w,c
  2321   001BBA  50E6               	movf	postinc1,w,c
  2322   001BBC  0A80               	xorlw	128
  2323   001BBE  6E0F               	movwf	(??_fputc+4)^0,c
  2324   001BC0  50DE               	movf	postinc2,w,c
  2325   001BC2  0A80               	xorlw	128
  2326   001BC4  580F               	subwfb	(??_fputc+4)^0,w,c
  2327   001BC6  B0D8               	btfsc	status,0,c
  2328   001BC8  EFE8  F00D         	goto	u1651
  2329   001BCC  EFEA  F00D         	goto	u1650
  2330   001BD0                     u1651:
  2331   001BD0  EFF3  F00D         	goto	l1047
  2332   001BD4                     u1650:
  2333   001BD4                     l2241:
  2334   001BD4  EE20 F003          	lfsr	2,3
  2335   001BD8  5009               	movf	fputc@fp^0,w,c
  2336   001BDA  26D9               	addwf	fsr2l,f,c
  2337   001BDC  500A               	movf	(fputc@fp+1)^0,w,c
  2338   001BDE  22DA               	addwfc	fsr2h,f,c
  2339   001BE0  2ADE               	incf	postinc2,f,c
  2340   001BE2  0E00               	movlw	0
  2341   001BE4  22DD               	addwfc	postdec2,f,c
  2342   001BE6                     l1047:
  2343   001BE6  0012               	return		;funcret
  2344   001BE8                     __end_of_fputc:
  2345                           	callstack 0
  2346                           
  2347 ;; *************** function _putch *****************
  2348 ;; Defined at:
  2349 ;;		line 198 in file "mcc_generated_files/eusart1.c"
  2350 ;; Parameters:    Size  Location     Type
  2351 ;;  txData          1    wreg     unsigned char 
  2352 ;; Auto vars:     Size  Location     Type
  2353 ;;  txData          1    5[COMRAM] unsigned char 
  2354 ;; Return value:  Size  Location     Type
  2355 ;;                  1    wreg      void 
  2356 ;; Registers used:
  2357 ;;		wreg, fsr2l, fsr2h, status,2, status,0, cstack
  2358 ;; Tracked objects:
  2359 ;;		On entry : 0/0
  2360 ;;		On exit  : 0/0
  2361 ;;		Unchanged: 0/0
  2362 ;; Data sizes:     COMRAM   BANK0   BANK1   BANK2   BANK3   BANK4   BANK5   BANK6   BANK7   BANK8   BANK9  BANK10  BANK1
      +1  BANK12  BANK13  BANK14
  2363 ;;      Params:         0       0       0       0       0       0       0       0       0       0       0       0       
      +0       0       0       0
  2364 ;;      Locals:         1       0       0       0       0       0       0       0       0       0       0       0       
      +0       0       0       0
  2365 ;;      Temps:          0       0       0       0       0       0       0       0       0       0       0       0       
      +0       0       0       0
  2366 ;;      Totals:         1       0       0       0       0       0       0       0       0       0       0       0       
      +0       0       0       0
  2367 ;;Total ram usage:        1 bytes
  2368 ;; Hardware stack levels used: 1
  2369 ;; Hardware stack levels required when called: 5
  2370 ;; This function calls:
  2371 ;;		_EUSART1_Write
  2372 ;; This function is called by:
  2373 ;;		_fputc
  2374 ;; This function uses a non-reentrant model
  2375 ;;
  2376                           
  2377                           	psect	text10
  2378   001F46                     __ptext10:
  2379                           	callstack 0
  2380   001F46                     _putch:
  2381                           	callstack 21
  2382                           
  2383                           ;incstack = 0
  2384                           ;putch@txData stored from wreg
  2385   001F46  6E06               	movwf	putch@txData^0,c
  2386   001F48                     
  2387                           ;mcc_generated_files/eusart1.c: 198: void putch(char txData);mcc_generated_files/eusart1
      +                          .c: 199: {;mcc_generated_files/eusart1.c: 200:     EUSART1_Write(txData);
  2388   001F48  5006               	movf	putch@txData^0,w,c
  2389   001F4A  EC6D  F00E         	call	_EUSART1_Write
  2390   001F4E  0012               	return		;funcret
  2391   001F50                     __end_of_putch:
  2392                           	callstack 0
  2393                           
  2394 ;; *************** function _ecranAllume *****************
  2395 ;; Defined at:
  2396 ;;		line 4 in file "ecran.c"
  2397 ;; Parameters:    Size  Location     Type
  2398 ;;		None
  2399 ;; Auto vars:     Size  Location     Type
  2400 ;;		None
  2401 ;; Return value:  Size  Location     Type
  2402 ;;                  1    wreg      void 
  2403 ;; Registers used:
  2404 ;;		wreg, fsr2l, fsr2h, status,2, status,0, cstack
  2405 ;; Tracked objects:
  2406 ;;		On entry : 0/0
  2407 ;;		On exit  : 0/0
  2408 ;;		Unchanged: 0/0
  2409 ;; Data sizes:     COMRAM   BANK0   BANK1   BANK2   BANK3   BANK4   BANK5   BANK6   BANK7   BANK8   BANK9  BANK10  BANK1
      +1  BANK12  BANK13  BANK14
  2410 ;;      Params:         0       0       0       0       0       0       0       0       0       0       0       0       
      +0       0       0       0
  2411 ;;      Locals:         0       0       0       0       0       0       0       0       0       0       0       0       
      +0       0       0       0
  2412 ;;      Temps:          0       0       0       0       0       0       0       0       0       0       0       0       
      +0       0       0       0
  2413 ;;      Totals:         0       0       0       0       0       0       0       0       0       0       0       0       
      +0       0       0       0
  2414 ;;Total ram usage:        0 bytes
  2415 ;; Hardware stack levels used: 1
  2416 ;; Hardware stack levels required when called: 5
  2417 ;; This function calls:
  2418 ;;		_EUSART1_Write
  2419 ;; This function is called by:
  2420 ;;		_main
  2421 ;; This function uses a non-reentrant model
  2422 ;;
  2423                           
  2424                           	psect	text11
  2425   001F2A                     __ptext11:
  2426                           	callstack 0
  2427   001F2A                     _ecranAllume:
  2428                           	callstack 25
  2429   001F2A                     
  2430                           ;ecran.c: 6:     EUSART1_Write(0xFE);
  2431   001F2A  0EFE               	movlw	254
  2432   001F2C  EC6D  F00E         	call	_EUSART1_Write
  2433                           
  2434                           ;ecran.c: 7:     EUSART1_Write(0x41);
  2435   001F30  0E41               	movlw	65
  2436   001F32  EC6D  F00E         	call	_EUSART1_Write
  2437   001F36  0012               	return		;funcret
  2438   001F38                     __end_of_ecranAllume:
  2439                           	callstack 0
  2440                           
  2441 ;; *************** function _EUSART1_Write *****************
  2442 ;; Defined at:
  2443 ;;		line 173 in file "mcc_generated_files/eusart1.c"
  2444 ;; Parameters:    Size  Location     Type
  2445 ;;  txData          1    wreg     unsigned char 
  2446 ;; Auto vars:     Size  Location     Type
  2447 ;;  txData          1    4[COMRAM] unsigned char 
  2448 ;; Return value:  Size  Location     Type
  2449 ;;                  1    wreg      void 
  2450 ;; Registers used:
  2451 ;;		wreg, fsr2l, fsr2h, status,2, status,0
  2452 ;; Tracked objects:
  2453 ;;		On entry : 0/0
  2454 ;;		On exit  : 0/0
  2455 ;;		Unchanged: 0/0
  2456 ;; Data sizes:     COMRAM   BANK0   BANK1   BANK2   BANK3   BANK4   BANK5   BANK6   BANK7   BANK8   BANK9  BANK10  BANK1
      +1  BANK12  BANK13  BANK14
  2457 ;;      Params:         0       0       0       0       0       0       0       0       0       0       0       0       
      +0       0       0       0
  2458 ;;      Locals:         1       0       0       0       0       0       0       0       0       0       0       0       
      +0       0       0       0
  2459 ;;      Temps:          0       0       0       0       0       0       0       0       0       0       0       0       
      +0       0       0       0
  2460 ;;      Totals:         1       0       0       0       0       0       0       0       0       0       0       0       
      +0       0       0       0
  2461 ;;Total ram usage:        1 bytes
  2462 ;; Hardware stack levels used: 1
  2463 ;; Hardware stack levels required when called: 4
  2464 ;; This function calls:
  2465 ;;		Nothing
  2466 ;; This function is called by:
  2467 ;;		_putch
  2468 ;;		_ecranAllume
  2469 ;;		_videecran
  2470 ;;		_ecranEteint
  2471 ;;		_curseurposition
  2472 ;;		_ecrireCaractere
  2473 ;;		_changeebaud
  2474 ;; This function uses a non-reentrant model
  2475 ;;
  2476                           
  2477                           	psect	text12
  2478   001CDA                     __ptext12:
  2479                           	callstack 0
  2480   001CDA                     _EUSART1_Write:
  2481                           	callstack 25
  2482                           
  2483                           ;incstack = 0
  2484                           ;EUSART1_Write@txData stored from wreg
  2485   001CDA  6E05               	movwf	EUSART1_Write@txData^0,c
  2486   001CDC                     l2213:
  2487                           
  2488                           ;mcc_generated_files/eusart1.c: 175:     while(0 == eusart1TxBufferRemaining)
  2489   001CDC  5058               	movf	_eusart1TxBufferRemaining^0,w,c	;volatile
  2490   001CDE  B4D8               	btfsc	status,2,c
  2491   001CE0  EF74  F00E         	goto	u1591
  2492   001CE4  EF76  F00E         	goto	u1590
  2493   001CE8                     u1591:
  2494   001CE8  EF6E  F00E         	goto	l2213
  2495   001CEC                     u1590:
  2496   001CEC                     
  2497                           ;mcc_generated_files/eusart1.c: 179:     if(0 == PIE1bits.TX1IE)
  2498   001CEC  B89D               	btfsc	157,4,c	;volatile
  2499   001CEE  EF7B  F00E         	goto	u1601
  2500   001CF2  EF7D  F00E         	goto	u1600
  2501   001CF6                     u1601:
  2502   001CF6  EF81  F00E         	goto	l180
  2503   001CFA                     u1600:
  2504   001CFA                     
  2505                           ;mcc_generated_files/eusart1.c: 180:     {;mcc_generated_files/eusart1.c: 181:         T
      +                          XREG1 = txData;
  2506   001CFA  C005  FFAD         	movff	EUSART1_Write@txData,4013	;volatile
  2507                           
  2508                           ;mcc_generated_files/eusart1.c: 182:     }
  2509   001CFE  EF96  F00E         	goto	l2227
  2510   001D02                     l180:
  2511                           
  2512                           ;mcc_generated_files/eusart1.c: 184:     {;mcc_generated_files/eusart1.c: 185:         P
      +                          IE1bits.TX1IE = 0;
  2513   001D02  989D               	bcf	157,4,c	;volatile
  2514   001D04                     
  2515                           ;mcc_generated_files/eusart1.c: 186:         eusart1TxBuffer[eusart1TxHead++] = txData;
  2516   001D04  0E90               	movlw	low _eusart1TxBuffer
  2517   001D06  2451               	addwf	_eusart1TxHead^0,w,c	;volatile
  2518   001D08  6ED9               	movwf	fsr2l,c
  2519   001D0A  6ADA               	clrf	fsr2h,c
  2520   001D0C  0E00               	movlw	high _eusart1TxBuffer
  2521   001D0E  22DA               	addwfc	fsr2h,f,c
  2522   001D10  C005  FFDF         	movff	EUSART1_Write@txData,indf2
  2523   001D14  2A51               	incf	_eusart1TxHead^0,f,c	;volatile
  2524   001D16                     
  2525                           ;mcc_generated_files/eusart1.c: 187:         if(sizeof(eusart1TxBuffer) <= eusart1TxHead
      +                          )
  2526   001D16  0E07               	movlw	7
  2527   001D18  6451               	cpfsgt	_eusart1TxHead^0,c	;volatile
  2528   001D1A  EF91  F00E         	goto	u1611
  2529   001D1E  EF93  F00E         	goto	u1610
  2530   001D22                     u1611:
  2531   001D22  EF95  F00E         	goto	l2225
  2532   001D26                     u1610:
  2533   001D26                     
  2534                           ;mcc_generated_files/eusart1.c: 188:         {;mcc_generated_files/eusart1.c: 189:      
      +                                 eusart1TxHead = 0;
  2535   001D26  0E00               	movlw	0
  2536   001D28  6E51               	movwf	_eusart1TxHead^0,c	;volatile
  2537   001D2A                     l2225:
  2538                           
  2539                           ;mcc_generated_files/eusart1.c: 191:         eusart1TxBufferRemaining--;
  2540   001D2A  0658               	decf	_eusart1TxBufferRemaining^0,f,c	;volatile
  2541   001D2C                     l2227:
  2542                           
  2543                           ;mcc_generated_files/eusart1.c: 193:     PIE1bits.TX1IE = 1;
  2544   001D2C  889D               	bsf	157,4,c	;volatile
  2545   001D2E  0012               	return		;funcret
  2546   001D30                     __end_of_EUSART1_Write:
  2547                           	callstack 0
  2548                           
  2549 ;; *************** function _SYSTEM_Initialize *****************
  2550 ;; Defined at:
  2551 ;;		line 50 in file "mcc_generated_files/mcc.c"
  2552 ;; Parameters:    Size  Location     Type
  2553 ;;		None
  2554 ;; Auto vars:     Size  Location     Type
  2555 ;;		None
  2556 ;; Return value:  Size  Location     Type
  2557 ;;                  1    wreg      void 
  2558 ;; Registers used:
  2559 ;;		wreg, status,2, status,0, cstack
  2560 ;; Tracked objects:
  2561 ;;		On entry : 0/0
  2562 ;;		On exit  : 0/0
  2563 ;;		Unchanged: 0/0
  2564 ;; Data sizes:     COMRAM   BANK0   BANK1   BANK2   BANK3   BANK4   BANK5   BANK6   BANK7   BANK8   BANK9  BANK10  BANK1
      +1  BANK12  BANK13  BANK14
  2565 ;;      Params:         0       0       0       0       0       0       0       0       0       0       0       0       
      +0       0       0       0
  2566 ;;      Locals:         0       0       0       0       0       0       0       0       0       0       0       0       
      +0       0       0       0
  2567 ;;      Temps:          0       0       0       0       0       0       0       0       0       0       0       0       
      +0       0       0       0
  2568 ;;      Totals:         0       0       0       0       0       0       0       0       0       0       0       0       
      +0       0       0       0
  2569 ;;Total ram usage:        0 bytes
  2570 ;; Hardware stack levels used: 1
  2571 ;; Hardware stack levels required when called: 6
  2572 ;; This function calls:
  2573 ;;		_EUSART1_Initialize
  2574 ;;		_INTERRUPT_Initialize
  2575 ;;		_OSCILLATOR_Initialize
  2576 ;;		_PIN_MANAGER_Initialize
  2577 ;;		_PWM2_Initialize
  2578 ;;		_TMR2_Initialize
  2579 ;; This function is called by:
  2580 ;;		_main
  2581 ;; This function uses a non-reentrant model
  2582 ;;
  2583                           
  2584                           	psect	text13
  2585   001EDE                     __ptext13:
  2586                           	callstack 0
  2587   001EDE                     _SYSTEM_Initialize:
  2588                           	callstack 24
  2589   001EDE                     
  2590                           ;mcc_generated_files/mcc.c: 53:     INTERRUPT_Initialize();
  2591   001EDE  ECC7  F00F         	call	_INTERRUPT_Initialize	;wreg free
  2592   001EE2                     
  2593                           ;mcc_generated_files/mcc.c: 54:     PIN_MANAGER_Initialize();
  2594   001EE2  EC35  F00F         	call	_PIN_MANAGER_Initialize	;wreg free
  2595   001EE6                     
  2596                           ;mcc_generated_files/mcc.c: 55:     OSCILLATOR_Initialize();
  2597   001EE6  EC85  F00F         	call	_OSCILLATOR_Initialize	;wreg free
  2598   001EEA                     
  2599                           ;mcc_generated_files/mcc.c: 56:     PWM2_Initialize();
  2600   001EEA  EC7C  F00F         	call	_PWM2_Initialize	;wreg free
  2601   001EEE                     
  2602                           ;mcc_generated_files/mcc.c: 57:     TMR2_Initialize();
  2603   001EEE  EC9C  F00F         	call	_TMR2_Initialize	;wreg free
  2604   001EF2                     
  2605                           ;mcc_generated_files/mcc.c: 58:     EUSART1_Initialize();
  2606   001EF2  EC33  F00E         	call	_EUSART1_Initialize	;wreg free
  2607   001EF6  0012               	return		;funcret
  2608   001EF8                     __end_of_SYSTEM_Initialize:
  2609                           	callstack 0
  2610                           
  2611 ;; *************** function _TMR2_Initialize *****************
  2612 ;; Defined at:
  2613 ;;		line 62 in file "mcc_generated_files/tmr2.c"
  2614 ;; Parameters:    Size  Location     Type
  2615 ;;		None
  2616 ;; Auto vars:     Size  Location     Type
  2617 ;;		None
  2618 ;; Return value:  Size  Location     Type
  2619 ;;                  1    wreg      void 
  2620 ;; Registers used:
  2621 ;;		wreg, status,2
  2622 ;; Tracked objects:
  2623 ;;		On entry : 0/0
  2624 ;;		On exit  : 0/0
  2625 ;;		Unchanged: 0/0
  2626 ;; Data sizes:     COMRAM   BANK0   BANK1   BANK2   BANK3   BANK4   BANK5   BANK6   BANK7   BANK8   BANK9  BANK10  BANK1
      +1  BANK12  BANK13  BANK14
  2627 ;;      Params:         0       0       0       0       0       0       0       0       0       0       0       0       
      +0       0       0       0
  2628 ;;      Locals:         0       0       0       0       0       0       0       0       0       0       0       0       
      +0       0       0       0
  2629 ;;      Temps:          0       0       0       0       0       0       0       0       0       0       0       0       
      +0       0       0       0
  2630 ;;      Totals:         0       0       0       0       0       0       0       0       0       0       0       0       
      +0       0       0       0
  2631 ;;Total ram usage:        0 bytes
  2632 ;; Hardware stack levels used: 1
  2633 ;; Hardware stack levels required when called: 4
  2634 ;; This function calls:
  2635 ;;		Nothing
  2636 ;; This function is called by:
  2637 ;;		_SYSTEM_Initialize
  2638 ;; This function uses a non-reentrant model
  2639 ;;
  2640                           
  2641                           	psect	text14
  2642   001F38                     __ptext14:
  2643                           	callstack 0
  2644   001F38                     _TMR2_Initialize:
  2645                           	callstack 25
  2646   001F38                     
  2647                           ;mcc_generated_files/tmr2.c: 67:     PR2 = 0xFF;
  2648   001F38  68CB               	setf	203,c	;volatile
  2649   001F3A                     
  2650                           ;mcc_generated_files/tmr2.c: 70:     TMR2 = 0x00;
  2651   001F3A  0E00               	movlw	0
  2652   001F3C  6ECC               	movwf	204,c	;volatile
  2653   001F3E                     
  2654                           ;mcc_generated_files/tmr2.c: 73:     PIR1bits.TMR2IF = 0;
  2655   001F3E  929E               	bcf	158,1,c	;volatile
  2656                           
  2657                           ;mcc_generated_files/tmr2.c: 76:     T2CON = 0x04;
  2658   001F40  0E04               	movlw	4
  2659   001F42  6ECA               	movwf	202,c	;volatile
  2660   001F44  0012               	return		;funcret
  2661   001F46                     __end_of_TMR2_Initialize:
  2662                           	callstack 0
  2663                           
  2664 ;; *************** function _PWM2_Initialize *****************
  2665 ;; Defined at:
  2666 ;;		line 64 in file "mcc_generated_files/pwm2.c"
  2667 ;; Parameters:    Size  Location     Type
  2668 ;;		None
  2669 ;; Auto vars:     Size  Location     Type
  2670 ;;		None
  2671 ;; Return value:  Size  Location     Type
  2672 ;;                  1    wreg      void 
  2673 ;; Registers used:
  2674 ;;		wreg, status,2
  2675 ;; Tracked objects:
  2676 ;;		On entry : 0/0
  2677 ;;		On exit  : 0/0
  2678 ;;		Unchanged: 0/0
  2679 ;; Data sizes:     COMRAM   BANK0   BANK1   BANK2   BANK3   BANK4   BANK5   BANK6   BANK7   BANK8   BANK9  BANK10  BANK1
      +1  BANK12  BANK13  BANK14
  2680 ;;      Params:         0       0       0       0       0       0       0       0       0       0       0       0       
      +0       0       0       0
  2681 ;;      Locals:         0       0       0       0       0       0       0       0       0       0       0       0       
      +0       0       0       0
  2682 ;;      Temps:          0       0       0       0       0       0       0       0       0       0       0       0       
      +0       0       0       0
  2683 ;;      Totals:         0       0       0       0       0       0       0       0       0       0       0       0       
      +0       0       0       0
  2684 ;;Total ram usage:        0 bytes
  2685 ;; Hardware stack levels used: 1
  2686 ;; Hardware stack levels required when called: 4
  2687 ;; This function calls:
  2688 ;;		Nothing
  2689 ;; This function is called by:
  2690 ;;		_SYSTEM_Initialize
  2691 ;; This function uses a non-reentrant model
  2692 ;;
  2693                           
  2694                           	psect	text15
  2695   001EF8                     __ptext15:
  2696                           	callstack 0
  2697   001EF8                     _PWM2_Initialize:
  2698                           	callstack 25
  2699   001EF8                     
  2700                           ;mcc_generated_files/pwm2.c: 69:  CCP2CON = 0x1C;
  2701   001EF8  0E1C               	movlw	28
  2702   001EFA  010F               	movlb	15	; () banked
  2703   001EFC  6F50               	movwf	80,b	;volatile
  2704                           
  2705                           ;mcc_generated_files/pwm2.c: 72:  CCPR2L = 0x00;
  2706   001EFE  0E00               	movlw	0
  2707   001F00  6F51               	movwf	81,b	;volatile
  2708                           
  2709                           ;mcc_generated_files/pwm2.c: 75:  CCPR2H = 0x00;
  2710   001F02  0E00               	movlw	0
  2711   001F04  6F52               	movwf	82,b	;volatile
  2712   001F06                     
  2713                           ; BSR set to: 15
  2714                           ;mcc_generated_files/pwm2.c: 78:  CCPTMRSbits.C2TSEL = 0x0;
  2715   001F06  9299               	bcf	153,1,c	;volatile
  2716   001F08                     
  2717                           ; BSR set to: 15
  2718   001F08  0012               	return		;funcret
  2719   001F0A                     __end_of_PWM2_Initialize:
  2720                           	callstack 0
  2721                           
  2722 ;; *************** function _PIN_MANAGER_Initialize *****************
  2723 ;; Defined at:
  2724 ;;		line 55 in file "mcc_generated_files/pin_manager.c"
  2725 ;; Parameters:    Size  Location     Type
  2726 ;;		None
  2727 ;; Auto vars:     Size  Location     Type
  2728 ;;		None
  2729 ;; Return value:  Size  Location     Type
  2730 ;;                  1    wreg      void 
  2731 ;; Registers used:
  2732 ;;		wreg, status,2
  2733 ;; Tracked objects:
  2734 ;;		On entry : 0/0
  2735 ;;		On exit  : 0/0
  2736 ;;		Unchanged: 0/0
  2737 ;; Data sizes:     COMRAM   BANK0   BANK1   BANK2   BANK3   BANK4   BANK5   BANK6   BANK7   BANK8   BANK9  BANK10  BANK1
      +1  BANK12  BANK13  BANK14
  2738 ;;      Params:         0       0       0       0       0       0       0       0       0       0       0       0       
      +0       0       0       0
  2739 ;;      Locals:         0       0       0       0       0       0       0       0       0       0       0       0       
      +0       0       0       0
  2740 ;;      Temps:          0       0       0       0       0       0       0       0       0       0       0       0       
      +0       0       0       0
  2741 ;;      Totals:         0       0       0       0       0       0       0       0       0       0       0       0       
      +0       0       0       0
  2742 ;;Total ram usage:        0 bytes
  2743 ;; Hardware stack levels used: 1
  2744 ;; Hardware stack levels required when called: 4
  2745 ;; This function calls:
  2746 ;;		Nothing
  2747 ;; This function is called by:
  2748 ;;		_SYSTEM_Initialize
  2749 ;; This function uses a non-reentrant model
  2750 ;;
  2751                           
  2752                           	psect	text16
  2753   001E6A                     __ptext16:
  2754                           	callstack 0
  2755   001E6A                     _PIN_MANAGER_Initialize:
  2756                           	callstack 25
  2757   001E6A                     
  2758                           ;mcc_generated_files/pin_manager.c: 60:     LATA = 0x00;
  2759   001E6A  0E00               	movlw	0
  2760   001E6C  6E89               	movwf	137,c	;volatile
  2761                           
  2762                           ;mcc_generated_files/pin_manager.c: 61:     LATB = 0x00;
  2763   001E6E  0E00               	movlw	0
  2764   001E70  6E8A               	movwf	138,c	;volatile
  2765                           
  2766                           ;mcc_generated_files/pin_manager.c: 62:     LATC = 0x00;
  2767   001E72  0E00               	movlw	0
  2768   001E74  6E8B               	movwf	139,c	;volatile
  2769                           
  2770                           ;mcc_generated_files/pin_manager.c: 67:     TRISA = 0xEF;
  2771   001E76  0EEF               	movlw	239
  2772   001E78  6E92               	movwf	146,c	;volatile
  2773   001E7A                     
  2774                           ;mcc_generated_files/pin_manager.c: 68:     TRISB = 0xFF;
  2775   001E7A  6893               	setf	147,c	;volatile
  2776                           
  2777                           ;mcc_generated_files/pin_manager.c: 69:     TRISC = 0xBB;
  2778   001E7C  0EBB               	movlw	187
  2779   001E7E  6E94               	movwf	148,c	;volatile
  2780                           
  2781                           ;mcc_generated_files/pin_manager.c: 74:     ANCON0 = 0x1F;
  2782   001E80  0E1F               	movlw	31
  2783   001E82  010F               	movlb	15	; () banked
  2784   001E84  6F5D               	movwf	93,b	;volatile
  2785                           
  2786                           ;mcc_generated_files/pin_manager.c: 75:     ANCON1 = 0x07;
  2787   001E86  0E07               	movlw	7
  2788   001E88  6F5C               	movwf	92,b	;volatile
  2789                           
  2790                           ;mcc_generated_files/pin_manager.c: 80:     WPUB = 0x00;
  2791   001E8A  0E00               	movlw	0
  2792   001E8C  6F5B               	movwf	91,b	;volatile
  2793   001E8E                     
  2794                           ; BSR set to: 15
  2795                           ;mcc_generated_files/pin_manager.c: 81:     INTCON2bits.nRBPU = 1;
  2796   001E8E  8EF1               	bsf	241,7,c	;volatile
  2797   001E90                     
  2798                           ; BSR set to: 15
  2799   001E90  0012               	return		;funcret
  2800   001E92                     __end_of_PIN_MANAGER_Initialize:
  2801                           	callstack 0
  2802                           
  2803 ;; *************** function _OSCILLATOR_Initialize *****************
  2804 ;; Defined at:
  2805 ;;		line 61 in file "mcc_generated_files/mcc.c"
  2806 ;; Parameters:    Size  Location     Type
  2807 ;;		None
  2808 ;; Auto vars:     Size  Location     Type
  2809 ;;		None
  2810 ;; Return value:  Size  Location     Type
  2811 ;;                  1    wreg      void 
  2812 ;; Registers used:
  2813 ;;		wreg, status,2
  2814 ;; Tracked objects:
  2815 ;;		On entry : 0/0
  2816 ;;		On exit  : 0/0
  2817 ;;		Unchanged: 0/0
  2818 ;; Data sizes:     COMRAM   BANK0   BANK1   BANK2   BANK3   BANK4   BANK5   BANK6   BANK7   BANK8   BANK9  BANK10  BANK1
      +1  BANK12  BANK13  BANK14
  2819 ;;      Params:         0       0       0       0       0       0       0       0       0       0       0       0       
      +0       0       0       0
  2820 ;;      Locals:         0       0       0       0       0       0       0       0       0       0       0       0       
      +0       0       0       0
  2821 ;;      Temps:          0       0       0       0       0       0       0       0       0       0       0       0       
      +0       0       0       0
  2822 ;;      Totals:         0       0       0       0       0       0       0       0       0       0       0       0       
      +0       0       0       0
  2823 ;;Total ram usage:        0 bytes
  2824 ;; Hardware stack levels used: 1
  2825 ;; Hardware stack levels required when called: 4
  2826 ;; This function calls:
  2827 ;;		Nothing
  2828 ;; This function is called by:
  2829 ;;		_SYSTEM_Initialize
  2830 ;; This function uses a non-reentrant model
  2831 ;;
  2832                           
  2833                           	psect	text17
  2834   001F0A                     __ptext17:
  2835                           	callstack 0
  2836   001F0A                     _OSCILLATOR_Initialize:
  2837                           	callstack 25
  2838   001F0A                     
  2839                           ;mcc_generated_files/mcc.c: 64:     OSCCON = 0x62;
  2840   001F0A  0E62               	movlw	98
  2841   001F0C  6ED3               	movwf	211,c	;volatile
  2842                           
  2843                           ;mcc_generated_files/mcc.c: 66:     OSCCON2 = 0x00;
  2844   001F0E  0E00               	movlw	0
  2845   001F10  6ED2               	movwf	210,c	;volatile
  2846                           
  2847                           ;mcc_generated_files/mcc.c: 68:     OSCTUNE = 0x00;
  2848   001F12  0E00               	movlw	0
  2849   001F14  6E9B               	movwf	155,c	;volatile
  2850                           
  2851                           ;mcc_generated_files/mcc.c: 70:     REFOCON = 0x00;
  2852   001F16  0E00               	movlw	0
  2853   001F18  6E9A               	movwf	154,c	;volatile
  2854   001F1A  0012               	return		;funcret
  2855   001F1C                     __end_of_OSCILLATOR_Initialize:
  2856                           	callstack 0
  2857                           
  2858 ;; *************** function _INTERRUPT_Initialize *****************
  2859 ;; Defined at:
  2860 ;;		line 52 in file "mcc_generated_files/interrupt_manager.c"
  2861 ;; Parameters:    Size  Location     Type
  2862 ;;		None
  2863 ;; Auto vars:     Size  Location     Type
  2864 ;;		None
  2865 ;; Return value:  Size  Location     Type
  2866 ;;                  1    wreg      void 
  2867 ;; Registers used:
  2868 ;;		None
  2869 ;; Tracked objects:
  2870 ;;		On entry : 0/0
  2871 ;;		On exit  : 0/0
  2872 ;;		Unchanged: 0/0
  2873 ;; Data sizes:     COMRAM   BANK0   BANK1   BANK2   BANK3   BANK4   BANK5   BANK6   BANK7   BANK8   BANK9  BANK10  BANK1
      +1  BANK12  BANK13  BANK14
  2874 ;;      Params:         0       0       0       0       0       0       0       0       0       0       0       0       
      +0       0       0       0
  2875 ;;      Locals:         0       0       0       0       0       0       0       0       0       0       0       0       
      +0       0       0       0
  2876 ;;      Temps:          0       0       0       0       0       0       0       0       0       0       0       0       
      +0       0       0       0
  2877 ;;      Totals:         0       0       0       0       0       0       0       0       0       0       0       0       
      +0       0       0       0
  2878 ;;Total ram usage:        0 bytes
  2879 ;; Hardware stack levels used: 1
  2880 ;; Hardware stack levels required when called: 4
  2881 ;; This function calls:
  2882 ;;		Nothing
  2883 ;; This function is called by:
  2884 ;;		_SYSTEM_Initialize
  2885 ;; This function uses a non-reentrant model
  2886 ;;
  2887                           
  2888                           	psect	text18
  2889   001F8E                     __ptext18:
  2890                           	callstack 0
  2891   001F8E                     _INTERRUPT_Initialize:
  2892                           	callstack 25
  2893   001F8E                     
  2894                           ;mcc_generated_files/interrupt_manager.c: 55:     RCONbits.IPEN = 0;
  2895   001F8E  9ED0               	bcf	208,7,c	;volatile
  2896   001F90  0012               	return		;funcret
  2897   001F92                     __end_of_INTERRUPT_Initialize:
  2898                           	callstack 0
  2899                           
  2900 ;; *************** function _EUSART1_Initialize *****************
  2901 ;; Defined at:
  2902 ;;		line 88 in file "mcc_generated_files/eusart1.c"
  2903 ;; Parameters:    Size  Location     Type
  2904 ;;		None
  2905 ;; Auto vars:     Size  Location     Type
  2906 ;;		None
  2907 ;; Return value:  Size  Location     Type
  2908 ;;                  1    wreg      void 
  2909 ;; Registers used:
  2910 ;;		wreg, status,2, status,0, cstack
  2911 ;; Tracked objects:
  2912 ;;		On entry : 0/0
  2913 ;;		On exit  : 0/0
  2914 ;;		Unchanged: 0/0
  2915 ;; Data sizes:     COMRAM   BANK0   BANK1   BANK2   BANK3   BANK4   BANK5   BANK6   BANK7   BANK8   BANK9  BANK10  BANK1
      +1  BANK12  BANK13  BANK14
  2916 ;;      Params:         0       0       0       0       0       0       0       0       0       0       0       0       
      +0       0       0       0
  2917 ;;      Locals:         0       0       0       0       0       0       0       0       0       0       0       0       
      +0       0       0       0
  2918 ;;      Temps:          0       0       0       0       0       0       0       0       0       0       0       0       
      +0       0       0       0
  2919 ;;      Totals:         0       0       0       0       0       0       0       0       0       0       0       0       
      +0       0       0       0
  2920 ;;Total ram usage:        0 bytes
  2921 ;; Hardware stack levels used: 1
  2922 ;; Hardware stack levels required when called: 5
  2923 ;; This function calls:
  2924 ;;		_EUSART1_SetErrorHandler
  2925 ;;		_EUSART1_SetFramingErrorHandler
  2926 ;;		_EUSART1_SetOverrunErrorHandler
  2927 ;;		_EUSART1_SetRxInterruptHandler
  2928 ;;		_EUSART1_SetTxInterruptHandler
  2929 ;; This function is called by:
  2930 ;;		_SYSTEM_Initialize
  2931 ;; This function uses a non-reentrant model
  2932 ;;
  2933                           
  2934                           	psect	text19
  2935   001C66                     __ptext19:
  2936                           	callstack 0
  2937   001C66                     _EUSART1_Initialize:
  2938                           	callstack 24
  2939   001C66                     
  2940                           ;mcc_generated_files/eusart1.c: 91:     PIE1bits.RC1IE = 0;
  2941   001C66  9A9D               	bcf	157,5,c	;volatile
  2942   001C68                     
  2943                           ;mcc_generated_files/eusart1.c: 92:     EUSART1_SetRxInterruptHandler(EUSART1_Receive_IS
      +                          R);
  2944   001C68  0E90               	movlw	low _EUSART1_Receive_ISR
  2945   001C6A  6E05               	movwf	EUSART1_SetRxInterruptHandler@interruptHandler^0,c
  2946   001C6C  0E1A               	movlw	high _EUSART1_Receive_ISR
  2947   001C6E  6E06               	movwf	(EUSART1_SetRxInterruptHandler@interruptHandler+1)^0,c
  2948   001C70  ECAD  F00F         	call	_EUSART1_SetRxInterruptHandler	;wreg free
  2949   001C74                     
  2950                           ;mcc_generated_files/eusart1.c: 93:     PIE1bits.TX1IE = 0;
  2951   001C74  989D               	bcf	157,4,c	;volatile
  2952                           
  2953                           ;mcc_generated_files/eusart1.c: 94:     EUSART1_SetTxInterruptHandler(EUSART1_Transmit_I
      +                          SR);
  2954   001C76  0ECE               	movlw	low _EUSART1_Transmit_ISR
  2955   001C78  6E05               	movwf	EUSART1_SetTxInterruptHandler@interruptHandler^0,c
  2956   001C7A  0E1D               	movlw	high _EUSART1_Transmit_ISR
  2957   001C7C  6E06               	movwf	(EUSART1_SetTxInterruptHandler@interruptHandler+1)^0,c
  2958   001C7E  ECA8  F00F         	call	_EUSART1_SetTxInterruptHandler	;wreg free
  2959   001C82                     
  2960                           ;mcc_generated_files/eusart1.c: 98:     BAUDCON1 = 0x08;
  2961   001C82  0E08               	movlw	8
  2962   001C84  6EA7               	movwf	167,c	;volatile
  2963   001C86                     
  2964                           ;mcc_generated_files/eusart1.c: 101:     RCSTA1 = 0x90;
  2965   001C86  0E90               	movlw	144
  2966   001C88  6EAB               	movwf	171,c	;volatile
  2967   001C8A                     
  2968                           ;mcc_generated_files/eusart1.c: 104:     TXSTA1 = 0x24;
  2969   001C8A  0E24               	movlw	36
  2970   001C8C  6EAC               	movwf	172,c	;volatile
  2971   001C8E                     
  2972                           ;mcc_generated_files/eusart1.c: 107:     SPBRG1 = 0xCF;
  2973   001C8E  0ECF               	movlw	207
  2974   001C90  6EAF               	movwf	175,c	;volatile
  2975   001C92                     
  2976                           ;mcc_generated_files/eusart1.c: 110:     SPBRGH1 = 0x00;
  2977   001C92  0E00               	movlw	0
  2978   001C94  6E7D               	movwf	125,c	;volatile
  2979   001C96                     
  2980                           ;mcc_generated_files/eusart1.c: 113:     EUSART1_SetFramingErrorHandler(EUSART1_DefaultF
      +                          ramingErrorHandler);
  2981   001C96  0E92               	movlw	low _EUSART1_DefaultFramingErrorHandler
  2982   001C98  6E05               	movwf	EUSART1_SetFramingErrorHandler@interruptHandler^0,c
  2983   001C9A  0E1F               	movlw	high _EUSART1_DefaultFramingErrorHandler
  2984   001C9C  6E06               	movwf	(EUSART1_SetFramingErrorHandler@interruptHandler+1)^0,c
  2985   001C9E  ECB7  F00F         	call	_EUSART1_SetFramingErrorHandler	;wreg free
  2986   001CA2                     
  2987                           ;mcc_generated_files/eusart1.c: 114:     EUSART1_SetOverrunErrorHandler(EUSART1_DefaultO
      +                          verrunErrorHandler);
  2988   001CA2  0E82               	movlw	low _EUSART1_DefaultOverrunErrorHandler
  2989   001CA4  6E05               	movwf	EUSART1_SetOverrunErrorHandler@interruptHandler^0,c
  2990   001CA6  0E1F               	movlw	high _EUSART1_DefaultOverrunErrorHandler
  2991   001CA8  6E06               	movwf	(EUSART1_SetOverrunErrorHandler@interruptHandler+1)^0,c
  2992   001CAA  ECB2  F00F         	call	_EUSART1_SetOverrunErrorHandler	;wreg free
  2993   001CAE                     
  2994                           ;mcc_generated_files/eusart1.c: 115:     EUSART1_SetErrorHandler(EUSART1_DefaultErrorHan
      +                          dler);
  2995   001CAE  0E88               	movlw	low _EUSART1_DefaultErrorHandler
  2996   001CB0  6E05               	movwf	EUSART1_SetErrorHandler@interruptHandler^0,c
  2997   001CB2  0E1F               	movlw	high _EUSART1_DefaultErrorHandler
  2998   001CB4  6E06               	movwf	(EUSART1_SetErrorHandler@interruptHandler+1)^0,c
  2999   001CB6  ECBC  F00F         	call	_EUSART1_SetErrorHandler	;wreg free
  3000                           
  3001                           ;mcc_generated_files/eusart1.c: 117:     eusart1RxLastError.status = 0;
  3002   001CBA  0E00               	movlw	0
  3003   001CBC  6E4C               	movwf	_eusart1RxLastError^0,c	;volatile
  3004                           
  3005                           ;mcc_generated_files/eusart1.c: 120:     eusart1TxHead = 0;
  3006   001CBE  0E00               	movlw	0
  3007   001CC0  6E51               	movwf	_eusart1TxHead^0,c	;volatile
  3008                           
  3009                           ;mcc_generated_files/eusart1.c: 121:     eusart1TxTail = 0;
  3010   001CC2  0E00               	movlw	0
  3011   001CC4  6E50               	movwf	_eusart1TxTail^0,c	;volatile
  3012                           
  3013                           ;mcc_generated_files/eusart1.c: 122:     eusart1TxBufferRemaining = sizeof(eusart1TxBuff
      +                          er);
  3014   001CC6  0E08               	movlw	8
  3015   001CC8  6E58               	movwf	_eusart1TxBufferRemaining^0,c	;volatile
  3016                           
  3017                           ;mcc_generated_files/eusart1.c: 124:     eusart1RxHead = 0;
  3018   001CCA  0E00               	movlw	0
  3019   001CCC  6E4F               	movwf	_eusart1RxHead^0,c	;volatile
  3020                           
  3021                           ;mcc_generated_files/eusart1.c: 125:     eusart1RxTail = 0;
  3022   001CCE  0E00               	movlw	0
  3023   001CD0  6E4E               	movwf	_eusart1RxTail^0,c	;volatile
  3024                           
  3025                           ;mcc_generated_files/eusart1.c: 126:     eusart1RxCount = 0;
  3026   001CD2  0E00               	movlw	0
  3027   001CD4  6E4D               	movwf	_eusart1RxCount^0,c	;volatile
  3028   001CD6                     
  3029                           ;mcc_generated_files/eusart1.c: 129:     PIE1bits.RC1IE = 1;
  3030   001CD6  8A9D               	bsf	157,5,c	;volatile
  3031   001CD8  0012               	return		;funcret
  3032   001CDA                     __end_of_EUSART1_Initialize:
  3033                           	callstack 0
  3034                           
  3035 ;; *************** function _EUSART1_SetTxInterruptHandler *****************
  3036 ;; Defined at:
  3037 ;;		line 282 in file "mcc_generated_files/eusart1.c"
  3038 ;; Parameters:    Size  Location     Type
  3039 ;;  interruptHan    2    4[COMRAM] PTR FTN()void 
  3040 ;;		 -> EUSART1_Transmit_ISR(1), 
  3041 ;; Auto vars:     Size  Location     Type
  3042 ;;		None
  3043 ;; Return value:  Size  Location     Type
  3044 ;;                  1    wreg      void 
  3045 ;; Registers used:
  3046 ;;		wreg, status,2, status,0
  3047 ;; Tracked objects:
  3048 ;;		On entry : 0/0
  3049 ;;		On exit  : 0/0
  3050 ;;		Unchanged: 0/0
  3051 ;; Data sizes:     COMRAM   BANK0   BANK1   BANK2   BANK3   BANK4   BANK5   BANK6   BANK7   BANK8   BANK9  BANK10  BANK1
      +1  BANK12  BANK13  BANK14
  3052 ;;      Params:         2       0       0       0       0       0       0       0       0       0       0       0       
      +0       0       0       0
  3053 ;;      Locals:         0       0       0       0       0       0       0       0       0       0       0       0       
      +0       0       0       0
  3054 ;;      Temps:          0       0       0       0       0       0       0       0       0       0       0       0       
      +0       0       0       0
  3055 ;;      Totals:         2       0       0       0       0       0       0       0       0       0       0       0       
      +0       0       0       0
  3056 ;;Total ram usage:        2 bytes
  3057 ;; Hardware stack levels used: 1
  3058 ;; Hardware stack levels required when called: 4
  3059 ;; This function calls:
  3060 ;;		Nothing
  3061 ;; This function is called by:
  3062 ;;		_EUSART1_Initialize
  3063 ;; This function uses a non-reentrant model
  3064 ;;
  3065                           
  3066                           	psect	text20
  3067   001F50                     __ptext20:
  3068                           	callstack 0
  3069   001F50                     _EUSART1_SetTxInterruptHandler:
  3070                           	callstack 24
  3071   001F50                     
  3072                           ;mcc_generated_files/eusart1.c: 283:     EUSART1_TxDefaultInterruptHandler = interruptHa
      +                          ndler;
  3073   001F50  C005  F056         	movff	EUSART1_SetTxInterruptHandler@interruptHandler,_EUSART1_TxDefaultInterruptHandler
  3074   001F54  C006  F057         	movff	EUSART1_SetTxInterruptHandler@interruptHandler+1,_EUSART1_TxDefaultInterruptHandl
      +                          er+1
  3075   001F58  0012               	return		;funcret
  3076   001F5A                     __end_of_EUSART1_SetTxInterruptHandler:
  3077                           	callstack 0
  3078                           
  3079 ;; *************** function _EUSART1_SetRxInterruptHandler *****************
  3080 ;; Defined at:
  3081 ;;		line 286 in file "mcc_generated_files/eusart1.c"
  3082 ;; Parameters:    Size  Location     Type
  3083 ;;  interruptHan    2    4[COMRAM] PTR FTN()void 
  3084 ;;		 -> EUSART1_Receive_ISR(1), 
  3085 ;; Auto vars:     Size  Location     Type
  3086 ;;		None
  3087 ;; Return value:  Size  Location     Type
  3088 ;;                  1    wreg      void 
  3089 ;; Registers used:
  3090 ;;		wreg, status,2, status,0
  3091 ;; Tracked objects:
  3092 ;;		On entry : 0/0
  3093 ;;		On exit  : 0/0
  3094 ;;		Unchanged: 0/0
  3095 ;; Data sizes:     COMRAM   BANK0   BANK1   BANK2   BANK3   BANK4   BANK5   BANK6   BANK7   BANK8   BANK9  BANK10  BANK1
      +1  BANK12  BANK13  BANK14
  3096 ;;      Params:         2       0       0       0       0       0       0       0       0       0       0       0       
      +0       0       0       0
  3097 ;;      Locals:         0       0       0       0       0       0       0       0       0       0       0       0       
      +0       0       0       0
  3098 ;;      Temps:          0       0       0       0       0       0       0       0       0       0       0       0       
      +0       0       0       0
  3099 ;;      Totals:         2       0       0       0       0       0       0       0       0       0       0       0       
      +0       0       0       0
  3100 ;;Total ram usage:        2 bytes
  3101 ;; Hardware stack levels used: 1
  3102 ;; Hardware stack levels required when called: 4
  3103 ;; This function calls:
  3104 ;;		Nothing
  3105 ;; This function is called by:
  3106 ;;		_EUSART1_Initialize
  3107 ;; This function uses a non-reentrant model
  3108 ;;
  3109                           
  3110                           	psect	text21
  3111   001F5A                     __ptext21:
  3112                           	callstack 0
  3113   001F5A                     _EUSART1_SetRxInterruptHandler:
  3114                           	callstack 24
  3115   001F5A                     
  3116                           ;mcc_generated_files/eusart1.c: 287:     EUSART1_RxDefaultInterruptHandler = interruptHa
      +                          ndler;
  3117   001F5A  C005  F054         	movff	EUSART1_SetRxInterruptHandler@interruptHandler,_EUSART1_RxDefaultInterruptHandler
  3118   001F5E  C006  F055         	movff	EUSART1_SetRxInterruptHandler@interruptHandler+1,_EUSART1_RxDefaultInterruptHandl
      +                          er+1
  3119   001F62  0012               	return		;funcret
  3120   001F64                     __end_of_EUSART1_SetRxInterruptHandler:
  3121                           	callstack 0
  3122                           
  3123 ;; *************** function _EUSART1_SetOverrunErrorHandler *****************
  3124 ;; Defined at:
  3125 ;;		line 274 in file "mcc_generated_files/eusart1.c"
  3126 ;; Parameters:    Size  Location     Type
  3127 ;;  interruptHan    2    4[COMRAM] PTR FTN()void 
  3128 ;;		 -> EUSART1_DefaultOverrunErrorHandler(1), 
  3129 ;; Auto vars:     Size  Location     Type
  3130 ;;		None
  3131 ;; Return value:  Size  Location     Type
  3132 ;;                  1    wreg      void 
  3133 ;; Registers used:
  3134 ;;		wreg, status,2, status,0
  3135 ;; Tracked objects:
  3136 ;;		On entry : 0/0
  3137 ;;		On exit  : 0/0
  3138 ;;		Unchanged: 0/0
  3139 ;; Data sizes:     COMRAM   BANK0   BANK1   BANK2   BANK3   BANK4   BANK5   BANK6   BANK7   BANK8   BANK9  BANK10  BANK1
      +1  BANK12  BANK13  BANK14
  3140 ;;      Params:         2       0       0       0       0       0       0       0       0       0       0       0       
      +0       0       0       0
  3141 ;;      Locals:         0       0       0       0       0       0       0       0       0       0       0       0       
      +0       0       0       0
  3142 ;;      Temps:          0       0       0       0       0       0       0       0       0       0       0       0       
      +0       0       0       0
  3143 ;;      Totals:         2       0       0       0       0       0       0       0       0       0       0       0       
      +0       0       0       0
  3144 ;;Total ram usage:        2 bytes
  3145 ;; Hardware stack levels used: 1
  3146 ;; Hardware stack levels required when called: 4
  3147 ;; This function calls:
  3148 ;;		Nothing
  3149 ;; This function is called by:
  3150 ;;		_EUSART1_Initialize
  3151 ;; This function uses a non-reentrant model
  3152 ;;
  3153                           
  3154                           	psect	text22
  3155   001F64                     __ptext22:
  3156                           	callstack 0
  3157   001F64                     _EUSART1_SetOverrunErrorHandler:
  3158                           	callstack 24
  3159   001F64                     
  3160                           ;mcc_generated_files/eusart1.c: 275:     EUSART1_OverrunErrorHandler = interruptHandler;
  3161   001F64  C005  F09F         	movff	EUSART1_SetOverrunErrorHandler@interruptHandler,_EUSART1_OverrunErrorHandler
  3162   001F68  C006  F0A0         	movff	EUSART1_SetOverrunErrorHandler@interruptHandler+1,_EUSART1_OverrunErrorHandler+1
  3163   001F6C  0012               	return		;funcret
  3164   001F6E                     __end_of_EUSART1_SetOverrunErrorHandler:
  3165                           	callstack 0
  3166                           
  3167 ;; *************** function _EUSART1_SetFramingErrorHandler *****************
  3168 ;; Defined at:
  3169 ;;		line 270 in file "mcc_generated_files/eusart1.c"
  3170 ;; Parameters:    Size  Location     Type
  3171 ;;  interruptHan    2    4[COMRAM] PTR FTN()void 
  3172 ;;		 -> EUSART1_DefaultFramingErrorHandler(1), 
  3173 ;; Auto vars:     Size  Location     Type
  3174 ;;		None
  3175 ;; Return value:  Size  Location     Type
  3176 ;;                  1    wreg      void 
  3177 ;; Registers used:
  3178 ;;		wreg, status,2, status,0
  3179 ;; Tracked objects:
  3180 ;;		On entry : 0/0
  3181 ;;		On exit  : 0/0
  3182 ;;		Unchanged: 0/0
  3183 ;; Data sizes:     COMRAM   BANK0   BANK1   BANK2   BANK3   BANK4   BANK5   BANK6   BANK7   BANK8   BANK9  BANK10  BANK1
      +1  BANK12  BANK13  BANK14
  3184 ;;      Params:         2       0       0       0       0       0       0       0       0       0       0       0       
      +0       0       0       0
  3185 ;;      Locals:         0       0       0       0       0       0       0       0       0       0       0       0       
      +0       0       0       0
  3186 ;;      Temps:          0       0       0       0       0       0       0       0       0       0       0       0       
      +0       0       0       0
  3187 ;;      Totals:         2       0       0       0       0       0       0       0       0       0       0       0       
      +0       0       0       0
  3188 ;;Total ram usage:        2 bytes
  3189 ;; Hardware stack levels used: 1
  3190 ;; Hardware stack levels required when called: 4
  3191 ;; This function calls:
  3192 ;;		Nothing
  3193 ;; This function is called by:
  3194 ;;		_EUSART1_Initialize
  3195 ;; This function uses a non-reentrant model
  3196 ;;
  3197                           
  3198                           	psect	text23
  3199   001F6E                     __ptext23:
  3200                           	callstack 0
  3201   001F6E                     _EUSART1_SetFramingErrorHandler:
  3202                           	callstack 24
  3203   001F6E                     
  3204                           ;mcc_generated_files/eusart1.c: 271:     EUSART1_FramingErrorHandler = interruptHandler;
  3205   001F6E  C005  F052         	movff	EUSART1_SetFramingErrorHandler@interruptHandler,_EUSART1_FramingErrorHandler
  3206   001F72  C006  F053         	movff	EUSART1_SetFramingErrorHandler@interruptHandler+1,_EUSART1_FramingErrorHandler+1
  3207   001F76  0012               	return		;funcret
  3208   001F78                     __end_of_EUSART1_SetFramingErrorHandler:
  3209                           	callstack 0
  3210                           
  3211 ;; *************** function _EUSART1_SetErrorHandler *****************
  3212 ;; Defined at:
  3213 ;;		line 278 in file "mcc_generated_files/eusart1.c"
  3214 ;; Parameters:    Size  Location     Type
  3215 ;;  interruptHan    2    4[COMRAM] PTR FTN()void 
  3216 ;;		 -> EUSART1_DefaultErrorHandler(1), 
  3217 ;; Auto vars:     Size  Location     Type
  3218 ;;		None
  3219 ;; Return value:  Size  Location     Type
  3220 ;;                  1    wreg      void 
  3221 ;; Registers used:
  3222 ;;		wreg, status,2, status,0
  3223 ;; Tracked objects:
  3224 ;;		On entry : 0/0
  3225 ;;		On exit  : 0/0
  3226 ;;		Unchanged: 0/0
  3227 ;; Data sizes:     COMRAM   BANK0   BANK1   BANK2   BANK3   BANK4   BANK5   BANK6   BANK7   BANK8   BANK9  BANK10  BANK1
      +1  BANK12  BANK13  BANK14
  3228 ;;      Params:         2       0       0       0       0       0       0       0       0       0       0       0       
      +0       0       0       0
  3229 ;;      Locals:         0       0       0       0       0       0       0       0       0       0       0       0       
      +0       0       0       0
  3230 ;;      Temps:          0       0       0       0       0       0       0       0       0       0       0       0       
      +0       0       0       0
  3231 ;;      Totals:         2       0       0       0       0       0       0       0       0       0       0       0       
      +0       0       0       0
  3232 ;;Total ram usage:        2 bytes
  3233 ;; Hardware stack levels used: 1
  3234 ;; Hardware stack levels required when called: 4
  3235 ;; This function calls:
  3236 ;;		Nothing
  3237 ;; This function is called by:
  3238 ;;		_EUSART1_Initialize
  3239 ;; This function uses a non-reentrant model
  3240 ;;
  3241                           
  3242                           	psect	text24
  3243   001F78                     __ptext24:
  3244                           	callstack 0
  3245   001F78                     _EUSART1_SetErrorHandler:
  3246                           	callstack 24
  3247   001F78                     
  3248                           ;mcc_generated_files/eusart1.c: 279:     EUSART1_ErrorHandler = interruptHandler;
  3249   001F78  C005  F09D         	movff	EUSART1_SetErrorHandler@interruptHandler,_EUSART1_ErrorHandler
  3250   001F7C  C006  F09E         	movff	EUSART1_SetErrorHandler@interruptHandler+1,_EUSART1_ErrorHandler+1
  3251   001F80  0012               	return		;funcret
  3252   001F82                     __end_of_EUSART1_SetErrorHandler:
  3253                           	callstack 0
  3254                           
  3255 ;; *************** function _PWM2_LoadDutyValue *****************
  3256 ;; Defined at:
  3257 ;;		line 82 in file "mcc_generated_files/pwm2.c"
  3258 ;; Parameters:    Size  Location     Type
  3259 ;;  dutyValue       2   66[COMRAM] unsigned short 
  3260 ;; Auto vars:     Size  Location     Type
  3261 ;;		None
  3262 ;; Return value:  Size  Location     Type
  3263 ;;                  1    wreg      void 
  3264 ;; Registers used:
  3265 ;;		wreg, status,2, status,0
  3266 ;; Tracked objects:
  3267 ;;		On entry : 0/0
  3268 ;;		On exit  : 0/0
  3269 ;;		Unchanged: 0/0
  3270 ;; Data sizes:     COMRAM   BANK0   BANK1   BANK2   BANK3   BANK4   BANK5   BANK6   BANK7   BANK8   BANK9  BANK10  BANK1
      +1  BANK12  BANK13  BANK14
  3271 ;;      Params:         2       0       0       0       0       0       0       0       0       0       0       0       
      +0       0       0       0
  3272 ;;      Locals:         0       0       0       0       0       0       0       0       0       0       0       0       
      +0       0       0       0
  3273 ;;      Temps:          2       0       0       0       0       0       0       0       0       0       0       0       
      +0       0       0       0
  3274 ;;      Totals:         4       0       0       0       0       0       0       0       0       0       0       0       
      +0       0       0       0
  3275 ;;Total ram usage:        4 bytes
  3276 ;; Hardware stack levels used: 1
  3277 ;; Hardware stack levels required when called: 4
  3278 ;; This function calls:
  3279 ;;		Nothing
  3280 ;; This function is called by:
  3281 ;;		_main
  3282 ;; This function uses a non-reentrant model
  3283 ;;
  3284                           
  3285                           	psect	text25
  3286   001E0E                     __ptext25:
  3287                           	callstack 0
  3288   001E0E                     _PWM2_LoadDutyValue:
  3289                           	callstack 26
  3290   001E0E                     
  3291                           ;mcc_generated_files/pwm2.c: 82: void PWM2_LoadDutyValue(uint16_t dutyValue);mcc_generat
      +                          ed_files/pwm2.c: 83: {;mcc_generated_files/pwm2.c: 85:     CCPR2L = ((dutyValue & 0x03FC
      +                          )>>2);
  3292   001E0E  C043  F045         	movff	PWM2_LoadDutyValue@dutyValue,??_PWM2_LoadDutyValue
  3293   001E12  C044  F046         	movff	PWM2_LoadDutyValue@dutyValue+1,??_PWM2_LoadDutyValue+1
  3294   001E16  90D8               	bcf	status,0,c
  3295   001E18  3246               	rrcf	(??_PWM2_LoadDutyValue+1)^0,f,c
  3296   001E1A  3245               	rrcf	??_PWM2_LoadDutyValue^0,f,c
  3297   001E1C  90D8               	bcf	status,0,c
  3298   001E1E  3246               	rrcf	(??_PWM2_LoadDutyValue+1)^0,f,c
  3299   001E20  3245               	rrcf	??_PWM2_LoadDutyValue^0,f,c
  3300   001E22  5045               	movf	??_PWM2_LoadDutyValue^0,w,c
  3301   001E24  010F               	movlb	15	; () banked
  3302   001E26  6F51               	movwf	81,b	;volatile
  3303                           
  3304                           ;mcc_generated_files/pwm2.c: 88:     CCP2CON = ((uint8_t)(CCP2CON & 0xCF) | ((dutyValue 
      +                          & 0x0003)<<4));
  3305   001E28  C043  F045         	movff	PWM2_LoadDutyValue@dutyValue,??_PWM2_LoadDutyValue
  3306   001E2C  0E03               	movlw	3
  3307   001E2E  1645               	andwf	??_PWM2_LoadDutyValue^0,f,c
  3308   001E30  3A45               	swapf	??_PWM2_LoadDutyValue^0,f,c
  3309   001E32  0EF0               	movlw	240
  3310   001E34  1645               	andwf	??_PWM2_LoadDutyValue^0,f,c
  3311   001E36  5150               	movf	80,w,b	;volatile
  3312   001E38  0BCF               	andlw	207
  3313   001E3A  1045               	iorwf	??_PWM2_LoadDutyValue^0,w,c
  3314   001E3C  6F50               	movwf	80,b	;volatile
  3315   001E3E                     
  3316                           ; BSR set to: 15
  3317   001E3E  0012               	return		;funcret
  3318   001E40                     __end_of_PWM2_LoadDutyValue:
  3319                           	callstack 0
  3320                           
  3321 ;; *************** function _EUSART1_Read *****************
  3322 ;; Defined at:
  3323 ;;		line 151 in file "mcc_generated_files/eusart1.c"
  3324 ;; Parameters:    Size  Location     Type
  3325 ;;		None
  3326 ;; Auto vars:     Size  Location     Type
  3327 ;;  readValue       1    4[COMRAM] unsigned char 
  3328 ;; Return value:  Size  Location     Type
  3329 ;;                  1    wreg      unsigned char 
  3330 ;; Registers used:
  3331 ;;		wreg, fsr2l, fsr2h, status,2, status,0
  3332 ;; Tracked objects:
  3333 ;;		On entry : 0/0
  3334 ;;		On exit  : 0/0
  3335 ;;		Unchanged: 0/0
  3336 ;; Data sizes:     COMRAM   BANK0   BANK1   BANK2   BANK3   BANK4   BANK5   BANK6   BANK7   BANK8   BANK9  BANK10  BANK1
      +1  BANK12  BANK13  BANK14
  3337 ;;      Params:         0       0       0       0       0       0       0       0       0       0       0       0       
      +0       0       0       0
  3338 ;;      Locals:         1       0       0       0       0       0       0       0       0       0       0       0       
      +0       0       0       0
  3339 ;;      Temps:          0       0       0       0       0       0       0       0       0       0       0       0       
      +0       0       0       0
  3340 ;;      Totals:         1       0       0       0       0       0       0       0       0       0       0       0       
      +0       0       0       0
  3341 ;;Total ram usage:        1 bytes
  3342 ;; Hardware stack levels used: 1
  3343 ;; Hardware stack levels required when called: 4
  3344 ;; This function calls:
  3345 ;;		Nothing
  3346 ;; This function is called by:
  3347 ;;		_main
  3348 ;; This function uses a non-reentrant model
  3349 ;;
  3350                           
  3351                           	psect	text26
  3352   001D30                     __ptext26:
  3353                           	callstack 0
  3354   001D30                     _EUSART1_Read:
  3355                           	callstack 26
  3356   001D30                     l2653:
  3357                           
  3358                           ;mcc_generated_files/eusart1.c: 155:     while(0 == eusart1RxCount)
  3359   001D30  504D               	movf	_eusart1RxCount^0,w,c	;volatile
  3360   001D32  B4D8               	btfsc	status,2,c
  3361   001D34  EF9E  F00E         	goto	u2171
  3362   001D38  EFA0  F00E         	goto	u2170
  3363   001D3C                     u2171:
  3364   001D3C  EF98  F00E         	goto	l2653
  3365   001D40                     u2170:
  3366   001D40                     
  3367                           ;mcc_generated_files/eusart1.c: 159:     eusart1RxLastError = eusart1RxStatusBuffer[eusa
      +                          rt1RxTail];
  3368   001D40  0E80               	movlw	low _eusart1RxStatusBuffer
  3369   001D42  244E               	addwf	_eusart1RxTail^0,w,c	;volatile
  3370   001D44  6ED9               	movwf	fsr2l,c
  3371   001D46  6ADA               	clrf	fsr2h,c
  3372   001D48  0E00               	movlw	high _eusart1RxStatusBuffer
  3373   001D4A  22DA               	addwfc	fsr2h,f,c
  3374   001D4C  50DF               	movf	indf2,w,c
  3375   001D4E  6E4C               	movwf	_eusart1RxLastError^0,c	;volatile
  3376                           
  3377                           ;mcc_generated_files/eusart1.c: 161:     readValue = eusart1RxBuffer[eusart1RxTail++];
  3378   001D50  0E88               	movlw	low _eusart1RxBuffer
  3379   001D52  244E               	addwf	_eusart1RxTail^0,w,c	;volatile
  3380   001D54  6ED9               	movwf	fsr2l,c
  3381   001D56  6ADA               	clrf	fsr2h,c
  3382   001D58  0E00               	movlw	high _eusart1RxBuffer
  3383   001D5A  22DA               	addwfc	fsr2h,f,c
  3384   001D5C  50DF               	movf	indf2,w,c
  3385   001D5E  6E05               	movwf	EUSART1_Read@readValue^0,c
  3386   001D60  2A4E               	incf	_eusart1RxTail^0,f,c	;volatile
  3387   001D62                     
  3388                           ;mcc_generated_files/eusart1.c: 162:     if(sizeof(eusart1RxBuffer) <= eusart1RxTail)
  3389   001D62  0E07               	movlw	7
  3390   001D64  644E               	cpfsgt	_eusart1RxTail^0,c	;volatile
  3391   001D66  EFB7  F00E         	goto	u2181
  3392   001D6A  EFB9  F00E         	goto	u2180
  3393   001D6E                     u2181:
  3394   001D6E  EFBB  F00E         	goto	l2663
  3395   001D72                     u2180:
  3396   001D72                     
  3397                           ;mcc_generated_files/eusart1.c: 163:     {;mcc_generated_files/eusart1.c: 164:         e
      +                          usart1RxTail = 0;
  3398   001D72  0E00               	movlw	0
  3399   001D74  6E4E               	movwf	_eusart1RxTail^0,c	;volatile
  3400   001D76                     l2663:
  3401                           
  3402                           ;mcc_generated_files/eusart1.c: 166:     PIE1bits.RC1IE = 0;
  3403   001D76  9A9D               	bcf	157,5,c	;volatile
  3404   001D78                     
  3405                           ;mcc_generated_files/eusart1.c: 167:     eusart1RxCount--;
  3406   001D78  064D               	decf	_eusart1RxCount^0,f,c	;volatile
  3407   001D7A                     
  3408                           ;mcc_generated_files/eusart1.c: 168:     PIE1bits.RC1IE = 1;
  3409   001D7A  8A9D               	bsf	157,5,c	;volatile
  3410   001D7C                     
  3411                           ;mcc_generated_files/eusart1.c: 170:     return readValue;
  3412   001D7C  5005               	movf	EUSART1_Read@readValue^0,w,c
  3413   001D7E  0012               	return		;funcret
  3414   001D80                     __end_of_EUSART1_Read:
  3415                           	callstack 0
  3416                           
  3417 ;; *************** function _INTERRUPT_InterruptManager *****************
  3418 ;; Defined at:
  3419 ;;		line 58 in file "mcc_generated_files/interrupt_manager.c"
  3420 ;; Parameters:    Size  Location     Type
  3421 ;;		None
  3422 ;; Auto vars:     Size  Location     Type
  3423 ;;		None
  3424 ;; Return value:  Size  Location     Type
  3425 ;;                  1    wreg      void 
  3426 ;; Registers used:
  3427 ;;		wreg, fsr2l, fsr2h, status,2, status,0, pcl, pclath, pclatu, tosl, cstack
  3428 ;; Tracked objects:
  3429 ;;		On entry : 0/0
  3430 ;;		On exit  : 0/0
  3431 ;;		Unchanged: 0/0
  3432 ;; Data sizes:     COMRAM   BANK0   BANK1   BANK2   BANK3   BANK4   BANK5   BANK6   BANK7   BANK8   BANK9  BANK10  BANK1
      +1  BANK12  BANK13  BANK14
  3433 ;;      Params:         0       0       0       0       0       0       0       0       0       0       0       0       
      +0       0       0       0
  3434 ;;      Locals:         0       0       0       0       0       0       0       0       0       0       0       0       
      +0       0       0       0
  3435 ;;      Temps:          4       0       0       0       0       0       0       0       0       0       0       0       
      +0       0       0       0
  3436 ;;      Totals:         4       0       0       0       0       0       0       0       0       0       0       0       
      +0       0       0       0
  3437 ;;Total ram usage:        4 bytes
  3438 ;; Hardware stack levels used: 1
  3439 ;; Hardware stack levels required when called: 3
  3440 ;; This function calls:
  3441 ;;		Absolute function
  3442 ;;		_EUSART1_Receive_ISR
  3443 ;;		_EUSART1_Transmit_ISR
  3444 ;; This function is called by:
  3445 ;;		Interrupt level 2
  3446 ;; This function uses a non-reentrant model
  3447 ;;
  3448                           
  3449                           	psect	intcode
  3450   000008                     __pintcode:
  3451                           	callstack 0
  3452   000008                     _INTERRUPT_InterruptManager:
  3453                           	callstack 21
  3454                           
  3455                           ;incstack = 0
  3456   000008  8259               	bsf	int$flags,1,c	;set compiler interrupt flag (level 2)
  3457   00000A  CFFA F001          	movff	pclath,??_INTERRUPT_InterruptManager
  3458   00000E  CFFB F002          	movff	pclatu,??_INTERRUPT_InterruptManager+1
  3459   000012  CFD9 F003          	movff	fsr2l,??_INTERRUPT_InterruptManager+2
  3460   000016  CFDA F004          	movff	fsr2h,??_INTERRUPT_InterruptManager+3
  3461   00001A                     
  3462                           ;mcc_generated_files/interrupt_manager.c: 61:     if(INTCONbits.PEIE == 1)
  3463   00001A  ACF2               	btfss	242,6,c	;volatile
  3464   00001C  EF12  F000         	goto	i2u150_41
  3465   000020  EF14  F000         	goto	i2u150_40
  3466   000024                     i2u150_41:
  3467   000024  EF4E  F000         	goto	i2l80
  3468   000028                     i2u150_40:
  3469   000028                     
  3470                           ;mcc_generated_files/interrupt_manager.c: 62:     {;mcc_generated_files/interrupt_manage
      +                          r.c: 63:         if(PIE1bits.TX1IE == 1 && PIR1bits.TX1IF == 1)
  3471   000028  A89D               	btfss	157,4,c	;volatile
  3472   00002A  EF19  F000         	goto	i2u151_41
  3473   00002E  EF1B  F000         	goto	i2u151_40
  3474   000032                     i2u151_41:
  3475   000032  EF31  F000         	goto	i2l75
  3476   000036                     i2u151_40:
  3477   000036  A89E               	btfss	158,4,c	;volatile
  3478   000038  EF20  F000         	goto	i2u152_41
  3479   00003C  EF22  F000         	goto	i2u152_40
  3480   000040                     i2u152_41:
  3481   000040  EF31  F000         	goto	i2l75
  3482   000044                     i2u152_40:
  3483   000044                     
  3484                           ;mcc_generated_files/interrupt_manager.c: 64:         {;mcc_generated_files/interrupt_ma
      +                          nager.c: 65:             EUSART1_TxDefaultInterruptHandler();
  3485   000044  D802               	call	i2u153_48
  3486   000046  EF2F  F000         	goto	i2u153_49
  3487   00004A                     i2u153_48:
  3488   00004A  0005               	push	
  3489   00004C  6EFA               	movwf	pclath,c
  3490   00004E  5056               	movf	_EUSART1_TxDefaultInterruptHandler^0,w,c
  3491   000050  6EFD               	movwf	tosl,c
  3492   000052  5057               	movf	(_EUSART1_TxDefaultInterruptHandler+1)^0,w,c
  3493   000054  6EFE               	movwf	tosh,c
  3494   000056  50F8               	movf	tblptru,w,c
  3495   000058  6EFF               	movwf	tosu,c
  3496   00005A  50FA               	movf	pclath,w,c
  3497   00005C  0012               	return		;indir
  3498   00005E                     i2u153_49:
  3499                           
  3500                           ;mcc_generated_files/interrupt_manager.c: 66:         }
  3501   00005E  EF4E  F000         	goto	i2l80
  3502   000062                     i2l75:
  3503   000062  AA9D               	btfss	157,5,c	;volatile
  3504   000064  EF36  F000         	goto	i2u154_41
  3505   000068  EF38  F000         	goto	i2u154_40
  3506   00006C                     i2u154_41:
  3507   00006C  EF4E  F000         	goto	i2l76
  3508   000070                     i2u154_40:
  3509   000070  AA9E               	btfss	158,5,c	;volatile
  3510   000072  EF3D  F000         	goto	i2u155_41
  3511   000076  EF3F  F000         	goto	i2u155_40
  3512   00007A                     i2u155_41:
  3513   00007A  EF4E  F000         	goto	i2l76
  3514   00007E                     i2u155_40:
  3515   00007E                     
  3516                           ;mcc_generated_files/interrupt_manager.c: 68:         {;mcc_generated_files/interrupt_ma
      +                          nager.c: 69:             EUSART1_RxDefaultInterruptHandler();
  3517   00007E  D802               	call	i2u156_48
  3518   000080  EF4C  F000         	goto	i2u156_49
  3519   000084                     i2u156_48:
  3520   000084  0005               	push	
  3521   000086  6EFA               	movwf	pclath,c
  3522   000088  5054               	movf	_EUSART1_RxDefaultInterruptHandler^0,w,c
  3523   00008A  6EFD               	movwf	tosl,c
  3524   00008C  5055               	movf	(_EUSART1_RxDefaultInterruptHandler+1)^0,w,c
  3525   00008E  6EFE               	movwf	tosh,c
  3526   000090  50F8               	movf	tblptru,w,c
  3527   000092  6EFF               	movwf	tosu,c
  3528   000094  50FA               	movf	pclath,w,c
  3529   000096  0012               	return		;indir
  3530   000098                     i2u156_49:
  3531                           
  3532                           ;mcc_generated_files/interrupt_manager.c: 70:         }
  3533   000098  EF4E  F000         	goto	i2l80
  3534   00009C                     i2l76:
  3535   00009C                     i2l80:
  3536   00009C  C004  FFDA         	movff	??_INTERRUPT_InterruptManager+3,fsr2h
  3537   0000A0  C003  FFD9         	movff	??_INTERRUPT_InterruptManager+2,fsr2l
  3538   0000A4  C002  FFFB         	movff	??_INTERRUPT_InterruptManager+1,pclatu
  3539   0000A8  C001  FFFA         	movff	??_INTERRUPT_InterruptManager,pclath
  3540   0000AC  9259               	bcf	int$flags,1,c	;clear compiler interrupt flag (level 2)
  3541   0000AE  0011               	retfie		f
  3542   0000B0                     __end_of_INTERRUPT_InterruptManager:
  3543                           	callstack 0
  3544                           
  3545 ;; *************** function _EUSART1_Transmit_ISR *****************
  3546 ;; Defined at:
  3547 ;;		line 203 in file "mcc_generated_files/eusart1.c"
  3548 ;; Parameters:    Size  Location     Type
  3549 ;;		None
  3550 ;; Auto vars:     Size  Location     Type
  3551 ;;		None
  3552 ;; Return value:  Size  Location     Type
  3553 ;;                  1    wreg      void 
  3554 ;; Registers used:
  3555 ;;		wreg, fsr2l, fsr2h, status,2, status,0
  3556 ;; Tracked objects:
  3557 ;;		On entry : 0/0
  3558 ;;		On exit  : 0/0
  3559 ;;		Unchanged: 0/0
  3560 ;; Data sizes:     COMRAM   BANK0   BANK1   BANK2   BANK3   BANK4   BANK5   BANK6   BANK7   BANK8   BANK9  BANK10  BANK1
      +1  BANK12  BANK13  BANK14
  3561 ;;      Params:         0       0       0       0       0       0       0       0       0       0       0       0       
      +0       0       0       0
  3562 ;;      Locals:         0       0       0       0       0       0       0       0       0       0       0       0       
      +0       0       0       0
  3563 ;;      Temps:          0       0       0       0       0       0       0       0       0       0       0       0       
      +0       0       0       0
  3564 ;;      Totals:         0       0       0       0       0       0       0       0       0       0       0       0       
      +0       0       0       0
  3565 ;;Total ram usage:        0 bytes
  3566 ;; Hardware stack levels used: 1
  3567 ;; This function calls:
  3568 ;;		Nothing
  3569 ;; This function is called by:
  3570 ;;		_EUSART1_Initialize
  3571 ;;		_INTERRUPT_InterruptManager
  3572 ;; This function uses a non-reentrant model
  3573 ;;
  3574                           
  3575                           	psect	text28
  3576   001DCE                     __ptext28:
  3577                           	callstack 0
  3578   001DCE                     _EUSART1_Transmit_ISR:
  3579                           	callstack 23
  3580   001DCE                     
  3581                           ;mcc_generated_files/eusart1.c: 207:     if(sizeof(eusart1TxBuffer) > eusart1TxBufferRem
      +                          aining)
  3582   001DCE  0E08               	movlw	8
  3583   001DD0  6058               	cpfslt	_eusart1TxBufferRemaining^0,c	;volatile
  3584   001DD2  EFED  F00E         	goto	i2u142_41
  3585   001DD6  EFEF  F00E         	goto	i2u142_40
  3586   001DDA                     i2u142_41:
  3587   001DDA  EF05  F00F         	goto	i2l189
  3588   001DDE                     i2u142_40:
  3589   001DDE                     
  3590                           ;mcc_generated_files/eusart1.c: 208:     {;mcc_generated_files/eusart1.c: 209:         T
      +                          XREG1 = eusart1TxBuffer[eusart1TxTail++];
  3591   001DDE  0E90               	movlw	low _eusart1TxBuffer
  3592   001DE0  2450               	addwf	_eusart1TxTail^0,w,c	;volatile
  3593   001DE2  6ED9               	movwf	fsr2l,c
  3594   001DE4  6ADA               	clrf	fsr2h,c
  3595   001DE6  0E00               	movlw	high _eusart1TxBuffer
  3596   001DE8  22DA               	addwfc	fsr2h,f,c
  3597   001DEA  50DF               	movf	indf2,w,c
  3598   001DEC  6EAD               	movwf	173,c	;volatile
  3599   001DEE  2A50               	incf	_eusart1TxTail^0,f,c	;volatile
  3600   001DF0                     
  3601                           ;mcc_generated_files/eusart1.c: 210:         if(sizeof(eusart1TxBuffer) <= eusart1TxTail
      +                          )
  3602   001DF0  0E07               	movlw	7
  3603   001DF2  6450               	cpfsgt	_eusart1TxTail^0,c	;volatile
  3604   001DF4  EFFE  F00E         	goto	i2u143_41
  3605   001DF8  EF00  F00F         	goto	i2u143_40
  3606   001DFC                     i2u143_41:
  3607   001DFC  EF02  F00F         	goto	i2l2123
  3608   001E00                     i2u143_40:
  3609   001E00                     
  3610                           ;mcc_generated_files/eusart1.c: 211:         {;mcc_generated_files/eusart1.c: 212:      
      +                                 eusart1TxTail = 0;
  3611   001E00  0E00               	movlw	0
  3612   001E02  6E50               	movwf	_eusart1TxTail^0,c	;volatile
  3613   001E04                     i2l2123:
  3614                           
  3615                           ;mcc_generated_files/eusart1.c: 214:         eusart1TxBufferRemaining++;
  3616   001E04  2A58               	incf	_eusart1TxBufferRemaining^0,f,c	;volatile
  3617                           
  3618                           ;mcc_generated_files/eusart1.c: 215:     }
  3619   001E06  EF06  F00F         	goto	i2l192
  3620   001E0A                     i2l189:
  3621                           
  3622                           ;mcc_generated_files/eusart1.c: 217:     {;mcc_generated_files/eusart1.c: 218:         P
      +                          IE1bits.TX1IE = 0;
  3623   001E0A  989D               	bcf	157,4,c	;volatile
  3624   001E0C                     i2l192:
  3625   001E0C  0012               	return		;funcret
  3626   001E0E                     __end_of_EUSART1_Transmit_ISR:
  3627                           	callstack 0
  3628                           
  3629 ;; *************** function _EUSART1_Receive_ISR *****************
  3630 ;; Defined at:
  3631 ;;		line 222 in file "mcc_generated_files/eusart1.c"
  3632 ;; Parameters:    Size  Location     Type
  3633 ;;		None
  3634 ;; Auto vars:     Size  Location     Type
  3635 ;;		None
  3636 ;; Return value:  Size  Location     Type
  3637 ;;                  1    wreg      void 
  3638 ;; Registers used:
  3639 ;;		wreg, fsr2l, fsr2h, status,2, status,0, pcl, pclath, pclatu, tosl, cstack
  3640 ;; Tracked objects:
  3641 ;;		On entry : 0/0
  3642 ;;		On exit  : 0/0
  3643 ;;		Unchanged: 0/0
  3644 ;; Data sizes:     COMRAM   BANK0   BANK1   BANK2   BANK3   BANK4   BANK5   BANK6   BANK7   BANK8   BANK9  BANK10  BANK1
      +1  BANK12  BANK13  BANK14
  3645 ;;      Params:         0       0       0       0       0       0       0       0       0       0       0       0       
      +0       0       0       0
  3646 ;;      Locals:         0       0       0       0       0       0       0       0       0       0       0       0       
      +0       0       0       0
  3647 ;;      Temps:          0       0       0       0       0       0       0       0       0       0       0       0       
      +0       0       0       0
  3648 ;;      Totals:         0       0       0       0       0       0       0       0       0       0       0       0       
      +0       0       0       0
  3649 ;;Total ram usage:        0 bytes
  3650 ;; Hardware stack levels used: 1
  3651 ;; Hardware stack levels required when called: 2
  3652 ;; This function calls:
  3653 ;;		Absolute function
  3654 ;;		_EUSART1_DefaultErrorHandler
  3655 ;;		_EUSART1_DefaultFramingErrorHandler
  3656 ;;		_EUSART1_DefaultOverrunErrorHandler
  3657 ;;		_EUSART1_RxDataHandler
  3658 ;; This function is called by:
  3659 ;;		_EUSART1_Initialize
  3660 ;;		_INTERRUPT_InterruptManager
  3661 ;; This function uses a non-reentrant model
  3662 ;;
  3663                           
  3664                           	psect	text29
  3665   001A90                     __ptext29:
  3666                           	callstack 0
  3667   001A90                     _EUSART1_Receive_ISR:
  3668                           	callstack 21
  3669   001A90                     
  3670                           ;mcc_generated_files/eusart1.c: 225:     eusart1RxStatusBuffer[eusart1RxHead].status = 0
      +                          ;
  3671   001A90  0E80               	movlw	low _eusart1RxStatusBuffer
  3672   001A92  244F               	addwf	_eusart1RxHead^0,w,c	;volatile
  3673   001A94  6ED9               	movwf	fsr2l,c
  3674   001A96  6ADA               	clrf	fsr2h,c
  3675   001A98  0E00               	movlw	high _eusart1RxStatusBuffer
  3676   001A9A  22DA               	addwfc	fsr2h,f,c
  3677   001A9C  0E00               	movlw	0
  3678   001A9E  6EDF               	movwf	indf2,c
  3679   001AA0                     
  3680                           ;mcc_generated_files/eusart1.c: 227:     if(RCSTA1bits.FERR){
  3681   001AA0  A4AB               	btfss	171,2,c	;volatile
  3682   001AA2  EF55  F00D         	goto	i2u144_41
  3683   001AA6  EF57  F00D         	goto	i2u144_40
  3684   001AAA                     i2u144_41:
  3685   001AAA  EF6C  F00D         	goto	i2l2133
  3686   001AAE                     i2u144_40:
  3687   001AAE                     
  3688                           ;mcc_generated_files/eusart1.c: 228:         eusart1RxStatusBuffer[eusart1RxHead].ferr =
      +                           1;
  3689   001AAE  0E80               	movlw	low _eusart1RxStatusBuffer
  3690   001AB0  244F               	addwf	_eusart1RxHead^0,w,c	;volatile
  3691   001AB2  6ED9               	movwf	fsr2l,c
  3692   001AB4  6ADA               	clrf	fsr2h,c
  3693   001AB6  0E00               	movlw	high _eusart1RxStatusBuffer
  3694   001AB8  22DA               	addwfc	fsr2h,f,c
  3695   001ABA  0100               	movlb	0	; () banked
  3696   001ABC  82DF               	bsf	indf2,1,c
  3697   001ABE                     
  3698                           ; BSR set to: 0
  3699                           ;mcc_generated_files/eusart1.c: 229:         EUSART1_FramingErrorHandler();
  3700   001ABE  D802               	call	i2u145_48
  3701   001AC0  EF6C  F00D         	goto	i2u145_49
  3702   001AC4                     i2u145_48:
  3703   001AC4  0005               	push	
  3704   001AC6  6EFA               	movwf	pclath,c
  3705   001AC8  5052               	movf	_EUSART1_FramingErrorHandler^0,w,c
  3706   001ACA  6EFD               	movwf	tosl,c
  3707   001ACC  5053               	movf	(_EUSART1_FramingErrorHandler+1)^0,w,c
  3708   001ACE  6EFE               	movwf	tosh,c
  3709   001AD0  50F8               	movf	tblptru,w,c
  3710   001AD2  6EFF               	movwf	tosu,c
  3711   001AD4  50FA               	movf	pclath,w,c
  3712   001AD6  0012               	return		;indir
  3713   001AD8                     i2u145_49:
  3714   001AD8                     i2l2133:
  3715                           
  3716                           ;mcc_generated_files/eusart1.c: 232:     if(RCSTA1bits.OERR){
  3717   001AD8  A2AB               	btfss	171,1,c	;volatile
  3718   001ADA  EF71  F00D         	goto	i2u146_41
  3719   001ADE  EF73  F00D         	goto	i2u146_40
  3720   001AE2                     i2u146_41:
  3721   001AE2  EF88  F00D         	goto	i2l2139
  3722   001AE6                     i2u146_40:
  3723   001AE6                     
  3724                           ;mcc_generated_files/eusart1.c: 233:         eusart1RxStatusBuffer[eusart1RxHead].oerr =
      +                           1;
  3725   001AE6  0E80               	movlw	low _eusart1RxStatusBuffer
  3726   001AE8  244F               	addwf	_eusart1RxHead^0,w,c	;volatile
  3727   001AEA  6ED9               	movwf	fsr2l,c
  3728   001AEC  6ADA               	clrf	fsr2h,c
  3729   001AEE  0E00               	movlw	high _eusart1RxStatusBuffer
  3730   001AF0  22DA               	addwfc	fsr2h,f,c
  3731   001AF2  0100               	movlb	0	; () banked
  3732   001AF4  84DF               	bsf	indf2,2,c
  3733   001AF6                     
  3734                           ; BSR set to: 0
  3735                           ;mcc_generated_files/eusart1.c: 234:         EUSART1_OverrunErrorHandler();
  3736   001AF6  D802               	call	i2u147_48
  3737   001AF8  EF88  F00D         	goto	i2u147_49
  3738   001AFC                     i2u147_48:
  3739   001AFC  0005               	push	
  3740   001AFE  6EFA               	movwf	pclath,c
  3741   001B00  519F               	movf	_EUSART1_OverrunErrorHandler& (0+255),w,b
  3742   001B02  6EFD               	movwf	tosl,c
  3743   001B04  51A0               	movf	(_EUSART1_OverrunErrorHandler+1)& (0+255),w,b
  3744   001B06  6EFE               	movwf	tosh,c
  3745   001B08  50F8               	movf	tblptru,w,c
  3746   001B0A  6EFF               	movwf	tosu,c
  3747   001B0C  50FA               	movf	pclath,w,c
  3748   001B0E  0012               	return		;indir
  3749   001B10                     i2u147_49:
  3750   001B10                     i2l2139:
  3751                           
  3752                           ;mcc_generated_files/eusart1.c: 237:     if(eusart1RxStatusBuffer[eusart1RxHead].status)
      +                          {
  3753   001B10  0E80               	movlw	low _eusart1RxStatusBuffer
  3754   001B12  244F               	addwf	_eusart1RxHead^0,w,c	;volatile
  3755   001B14  6ED9               	movwf	fsr2l,c
  3756   001B16  6ADA               	clrf	fsr2h,c
  3757   001B18  0E00               	movlw	high _eusart1RxStatusBuffer
  3758   001B1A  22DA               	addwfc	fsr2h,f,c
  3759   001B1C  50DF               	movf	indf2,w,c
  3760   001B1E  B4D8               	btfsc	status,2,c
  3761   001B20  EF94  F00D         	goto	i2u148_41
  3762   001B24  EF96  F00D         	goto	i2u148_40
  3763   001B28                     i2u148_41:
  3764   001B28  EFA6  F00D         	goto	i2l2143
  3765   001B2C                     i2u148_40:
  3766   001B2C                     
  3767                           ;mcc_generated_files/eusart1.c: 238:         EUSART1_ErrorHandler();
  3768   001B2C  D802               	call	i2u149_48
  3769   001B2E  EFA4  F00D         	goto	i2u149_49
  3770   001B32                     i2u149_48:
  3771   001B32  0005               	push	
  3772   001B34  0100               	movlb	0	; () banked
  3773   001B36  6EFA               	movwf	pclath,c
  3774   001B38  519D               	movf	_EUSART1_ErrorHandler& (0+255),w,b
  3775   001B3A  6EFD               	movwf	tosl,c
  3776   001B3C  519E               	movf	(_EUSART1_ErrorHandler+1)& (0+255),w,b
  3777   001B3E  6EFE               	movwf	tosh,c
  3778   001B40  50F8               	movf	tblptru,w,c
  3779   001B42  6EFF               	movwf	tosu,c
  3780   001B44  50FA               	movf	pclath,w,c
  3781   001B46  0012               	return		;indir
  3782   001B48                     i2u149_49:
  3783                           
  3784                           ;mcc_generated_files/eusart1.c: 239:     } else {
  3785   001B48  EFA8  F00D         	goto	i2l199
  3786   001B4C                     i2l2143:
  3787                           
  3788                           ;mcc_generated_files/eusart1.c: 240:         EUSART1_RxDataHandler();
  3789   001B4C  EC20  F00F         	call	_EUSART1_RxDataHandler	;wreg free
  3790   001B50                     i2l199:
  3791   001B50  0012               	return		;funcret
  3792   001B52                     __end_of_EUSART1_Receive_ISR:
  3793                           	callstack 0
  3794                           
  3795 ;; *************** function _EUSART1_DefaultOverrunErrorHandler *****************
  3796 ;; Defined at:
  3797 ;;		line 258 in file "mcc_generated_files/eusart1.c"
  3798 ;; Parameters:    Size  Location     Type
  3799 ;;		None
  3800 ;; Auto vars:     Size  Location     Type
  3801 ;;		None
  3802 ;; Return value:  Size  Location     Type
  3803 ;;                  1    wreg      void 
  3804 ;; Registers used:
  3805 ;;		None
  3806 ;; Tracked objects:
  3807 ;;		On entry : 0/0
  3808 ;;		On exit  : 0/0
  3809 ;;		Unchanged: 0/0
  3810 ;; Data sizes:     COMRAM   BANK0   BANK1   BANK2   BANK3   BANK4   BANK5   BANK6   BANK7   BANK8   BANK9  BANK10  BANK1
      +1  BANK12  BANK13  BANK14
  3811 ;;      Params:         0       0       0       0       0       0       0       0       0       0       0       0       
      +0       0       0       0
  3812 ;;      Locals:         0       0       0       0       0       0       0       0       0       0       0       0       
      +0       0       0       0
  3813 ;;      Temps:          0       0       0       0       0       0       0       0       0       0       0       0       
      +0       0       0       0
  3814 ;;      Totals:         0       0       0       0       0       0       0       0       0       0       0       0       
      +0       0       0       0
  3815 ;;Total ram usage:        0 bytes
  3816 ;; Hardware stack levels used: 1
  3817 ;; This function calls:
  3818 ;;		Nothing
  3819 ;; This function is called by:
  3820 ;;		_EUSART1_Initialize
  3821 ;;		_EUSART1_Receive_ISR
  3822 ;; This function uses a non-reentrant model
  3823 ;;
  3824                           
  3825                           	psect	text30
  3826   001F82                     __ptext30:
  3827                           	callstack 0
  3828   001F82                     _EUSART1_DefaultOverrunErrorHandler:
  3829                           	callstack 22
  3830   001F82                     
  3831                           ;mcc_generated_files/eusart1.c: 261:     RCSTA1bits.CREN = 0;
  3832   001F82  98AB               	bcf	171,4,c	;volatile
  3833                           
  3834                           ;mcc_generated_files/eusart1.c: 262:     RCSTA1bits.CREN = 1;
  3835   001F84  88AB               	bsf	171,4,c	;volatile
  3836   001F86  0012               	return		;funcret
  3837   001F88                     __end_of_EUSART1_DefaultOverrunErrorHandler:
  3838                           	callstack 0
  3839                           
  3840 ;; *************** function _EUSART1_DefaultFramingErrorHandler *****************
  3841 ;; Defined at:
  3842 ;;		line 256 in file "mcc_generated_files/eusart1.c"
  3843 ;; Parameters:    Size  Location     Type
  3844 ;;		None
  3845 ;; Auto vars:     Size  Location     Type
  3846 ;;		None
  3847 ;; Return value:  Size  Location     Type
  3848 ;;                  1    wreg      void 
  3849 ;; Registers used:
  3850 ;;		None
  3851 ;; Tracked objects:
  3852 ;;		On entry : 0/0
  3853 ;;		On exit  : 0/0
  3854 ;;		Unchanged: 0/0
  3855 ;; Data sizes:     COMRAM   BANK0   BANK1   BANK2   BANK3   BANK4   BANK5   BANK6   BANK7   BANK8   BANK9  BANK10  BANK1
      +1  BANK12  BANK13  BANK14
  3856 ;;      Params:         0       0       0       0       0       0       0       0       0       0       0       0       
      +0       0       0       0
  3857 ;;      Locals:         0       0       0       0       0       0       0       0       0       0       0       0       
      +0       0       0       0
  3858 ;;      Temps:          0       0       0       0       0       0       0       0       0       0       0       0       
      +0       0       0       0
  3859 ;;      Totals:         0       0       0       0       0       0       0       0       0       0       0       0       
      +0       0       0       0
  3860 ;;Total ram usage:        0 bytes
  3861 ;; Hardware stack levels used: 1
  3862 ;; This function calls:
  3863 ;;		Nothing
  3864 ;; This function is called by:
  3865 ;;		_EUSART1_Initialize
  3866 ;;		_EUSART1_Receive_ISR
  3867 ;; This function uses a non-reentrant model
  3868 ;;
  3869                           
  3870                           	psect	text31
  3871   001F92                     __ptext31:
  3872                           	callstack 0
  3873   001F92                     _EUSART1_DefaultFramingErrorHandler:
  3874                           	callstack 22
  3875   001F92  0012               	return		;funcret
  3876   001F94                     __end_of_EUSART1_DefaultFramingErrorHandler:
  3877                           	callstack 0
  3878                           
  3879 ;; *************** function _EUSART1_DefaultErrorHandler *****************
  3880 ;; Defined at:
  3881 ;;		line 266 in file "mcc_generated_files/eusart1.c"
  3882 ;; Parameters:    Size  Location     Type
  3883 ;;		None
  3884 ;; Auto vars:     Size  Location     Type
  3885 ;;		None
  3886 ;; Return value:  Size  Location     Type
  3887 ;;                  1    wreg      void 
  3888 ;; Registers used:
  3889 ;;		wreg, fsr2l, fsr2h, status,2, status,0, cstack
  3890 ;; Tracked objects:
  3891 ;;		On entry : 0/0
  3892 ;;		On exit  : 0/0
  3893 ;;		Unchanged: 0/0
  3894 ;; Data sizes:     COMRAM   BANK0   BANK1   BANK2   BANK3   BANK4   BANK5   BANK6   BANK7   BANK8   BANK9  BANK10  BANK1
      +1  BANK12  BANK13  BANK14
  3895 ;;      Params:         0       0       0       0       0       0       0       0       0       0       0       0       
      +0       0       0       0
  3896 ;;      Locals:         0       0       0       0       0       0       0       0       0       0       0       0       
      +0       0       0       0
  3897 ;;      Temps:          0       0       0       0       0       0       0       0       0       0       0       0       
      +0       0       0       0
  3898 ;;      Totals:         0       0       0       0       0       0       0       0       0       0       0       0       
      +0       0       0       0
  3899 ;;Total ram usage:        0 bytes
  3900 ;; Hardware stack levels used: 1
  3901 ;; Hardware stack levels required when called: 1
  3902 ;; This function calls:
  3903 ;;		_EUSART1_RxDataHandler
  3904 ;; This function is called by:
  3905 ;;		_EUSART1_Initialize
  3906 ;;		_EUSART1_Receive_ISR
  3907 ;; This function uses a non-reentrant model
  3908 ;;
  3909                           
  3910                           	psect	text32
  3911   001F88                     __ptext32:
  3912                           	callstack 0
  3913   001F88                     _EUSART1_DefaultErrorHandler:
  3914                           	callstack 21
  3915   001F88                     
  3916                           ;mcc_generated_files/eusart1.c: 267:     EUSART1_RxDataHandler();
  3917   001F88  EC20  F00F         	call	_EUSART1_RxDataHandler	;wreg free
  3918   001F8C  0012               	return		;funcret
  3919   001F8E                     __end_of_EUSART1_DefaultErrorHandler:
  3920                           	callstack 0
  3921                           
  3922 ;; *************** function _EUSART1_RxDataHandler *****************
  3923 ;; Defined at:
  3924 ;;		line 246 in file "mcc_generated_files/eusart1.c"
  3925 ;; Parameters:    Size  Location     Type
  3926 ;;		None
  3927 ;; Auto vars:     Size  Location     Type
  3928 ;;		None
  3929 ;; Return value:  Size  Location     Type
  3930 ;;                  1    wreg      void 
  3931 ;; Registers used:
  3932 ;;		wreg, fsr2l, fsr2h, status,2, status,0
  3933 ;; Tracked objects:
  3934 ;;		On entry : 0/0
  3935 ;;		On exit  : 0/0
  3936 ;;		Unchanged: 0/0
  3937 ;; Data sizes:     COMRAM   BANK0   BANK1   BANK2   BANK3   BANK4   BANK5   BANK6   BANK7   BANK8   BANK9  BANK10  BANK1
      +1  BANK12  BANK13  BANK14
  3938 ;;      Params:         0       0       0       0       0       0       0       0       0       0       0       0       
      +0       0       0       0
  3939 ;;      Locals:         0       0       0       0       0       0       0       0       0       0       0       0       
      +0       0       0       0
  3940 ;;      Temps:          0       0       0       0       0       0       0       0       0       0       0       0       
      +0       0       0       0
  3941 ;;      Totals:         0       0       0       0       0       0       0       0       0       0       0       0       
      +0       0       0       0
  3942 ;;Total ram usage:        0 bytes
  3943 ;; Hardware stack levels used: 1
  3944 ;; This function calls:
  3945 ;;		Nothing
  3946 ;; This function is called by:
  3947 ;;		_EUSART1_Receive_ISR
  3948 ;;		_EUSART1_DefaultErrorHandler
  3949 ;; This function uses a non-reentrant model
  3950 ;;
  3951                           
  3952                           	psect	text33
  3953   001E40                     __ptext33:
  3954                           	callstack 0
  3955   001E40                     _EUSART1_RxDataHandler:
  3956                           	callstack 22
  3957   001E40                     
  3958                           ;mcc_generated_files/eusart1.c: 248:     eusart1RxBuffer[eusart1RxHead++] = RCREG1;
  3959   001E40  0E88               	movlw	low _eusart1RxBuffer
  3960   001E42  244F               	addwf	_eusart1RxHead^0,w,c	;volatile
  3961   001E44  6ED9               	movwf	fsr2l,c
  3962   001E46  6ADA               	clrf	fsr2h,c
  3963   001E48  0E00               	movlw	high _eusart1RxBuffer
  3964   001E4A  22DA               	addwfc	fsr2h,f,c
  3965   001E4C  CFAE FFDF          	movff	4014,indf2	;volatile
  3966   001E50  2A4F               	incf	_eusart1RxHead^0,f,c	;volatile
  3967   001E52                     
  3968                           ;mcc_generated_files/eusart1.c: 249:     if(sizeof(eusart1RxBuffer) <= eusart1RxHead)
  3969   001E52  0E07               	movlw	7
  3970   001E54  644F               	cpfsgt	_eusart1RxHead^0,c	;volatile
  3971   001E56  EF2F  F00F         	goto	i2u88_41
  3972   001E5A  EF31  F00F         	goto	i2u88_40
  3973   001E5E                     i2u88_41:
  3974   001E5E  EF33  F00F         	goto	i2l1709
  3975   001E62                     i2u88_40:
  3976   001E62                     
  3977                           ;mcc_generated_files/eusart1.c: 250:     {;mcc_generated_files/eusart1.c: 251:         e
      +                          usart1RxHead = 0;
  3978   001E62  0E00               	movlw	0
  3979   001E64  6E4F               	movwf	_eusart1RxHead^0,c	;volatile
  3980   001E66                     i2l1709:
  3981                           
  3982                           ;mcc_generated_files/eusart1.c: 253:     eusart1RxCount++;
  3983   001E66  2A4D               	incf	_eusart1RxCount^0,f,c	;volatile
  3984   001E68  0012               	return		;funcret
  3985   001E6A                     __end_of_EUSART1_RxDataHandler:
  3986                           	callstack 0
  3987                           
  3988                           	psect	text34
  3989   000000                     __ptext34:
  3990                           	callstack 0
  3991   000000                     
  3992                           	psect	rparam
  3993   000000                     
  3994                           	psect	temp
  3995   000059                     btemp:
  3996                           	callstack 0
  3997   000059                     	ds	1
  3998   000000                     int$flags	set	btemp
  3999   000000                     wtemp8	set	btemp+1
  4000   000000                     ttemp5	set	btemp+1
  4001   000000                     ttemp6	set	btemp+4
  4002   000000                     ttemp7	set	btemp+8
  4003                           
  4004                           	psect	config
  4005                           
  4006                           ;Config register CONFIG1L @ 0x300000
  4007                           ;	VREG Sleep Enable bit
  4008                           ;	RETEN = OFF, Ultra low-power regulator is Disabled (Controlled by REGSLP bit)
  4009                           ;	LF-INTOSC Low-power Enable bit
  4010                           ;	INTOSCSEL = HIGH, LF-INTOSC in High-power mode during Sleep
  4011                           ;	SOSC Power Selection and mode Configuration bits
  4012                           ;	SOSCSEL = DIG, Digital (SCLKI) mode
  4013                           ;	Extended Instruction Set
  4014                           ;	XINST = OFF, Disabled
  4015   300000                     	org	3145728
  4016   300000  15                 	db	21
  4017                           
  4018                           ;Config register CONFIG1H @ 0x300001
  4019                           ;	Oscillator
  4020                           ;	FOSC = RCIO, External RC oscillator
  4021                           ;	PLL x4 Enable bit
  4022                           ;	PLLCFG = OFF, Disabled
  4023                           ;	Fail-Safe Clock Monitor
  4024                           ;	FCMEN = OFF, Disabled
  4025                           ;	Internal External Oscillator Switch Over Mode
  4026                           ;	IESO = OFF, Disabled
  4027   300001                     	org	3145729
  4028   300001  07                 	db	7
  4029                           
  4030                           ;Config register CONFIG2L @ 0x300002
  4031                           ;	Power Up Timer
  4032                           ;	PWRTEN = OFF, Disabled
  4033                           ;	Brown Out Detect
  4034                           ;	BOREN = SBORDIS, Enabled in hardware, SBOREN disabled
  4035                           ;	Brown-out Reset Voltage bits
  4036                           ;	BORV = 3, 1.8V
  4037                           ;	BORMV Power level
  4038                           ;	BORPWR = ZPBORMV, ZPBORMV instead of BORMV is selected
  4039   300002                     	org	3145730
  4040   300002  7F                 	db	127
  4041                           
  4042                           ;Config register CONFIG2H @ 0x300003
  4043                           ;	Watchdog Timer
  4044                           ;	WDTEN = OFF, WDT disabled in hardware; SWDTEN bit disabled
  4045                           ;	Watchdog Postscaler
  4046                           ;	WDTPS = 1048576, 1:1048576
  4047   300003                     	org	3145731
  4048   300003  7C                 	db	124
  4049                           
  4050                           ; Padding undefined space
  4051   300004                     	org	3145732
  4052   300004  FF                 	db	255
  4053                           
  4054                           ;Config register CONFIG3H @ 0x300005
  4055                           ;	ECAN Mux bit
  4056                           ;	CANMX = PORTB, ECAN TX and RX pins are located on RB2 and RB3, respectively
  4057                           ;	MSSP address masking
  4058                           ;	MSSPMSK = MSK7, 7 Bit address masking mode
  4059                           ;	Master Clear Enable
  4060                           ;	MCLRE = ON, MCLR Enabled, RE3 Disabled
  4061   300005                     	org	3145733
  4062   300005  89                 	db	137
  4063                           
  4064                           ;Config register CONFIG4L @ 0x300006
  4065                           ;	Stack Overflow Reset
  4066                           ;	STVREN = ON, Enabled
  4067                           ;	Boot Block Size
  4068                           ;	BBSIZ = BB2K, 2K word Boot Block size
  4069   300006                     	org	3145734
  4070   300006  91                 	db	145
  4071                           
  4072                           ; Padding undefined space
  4073   300007                     	org	3145735
  4074   300007  FF                 	db	255
  4075                           
  4076                           ;Config register CONFIG5L @ 0x300008
  4077                           ;	Code Protect 00800-01FFF
  4078                           ;	CP0 = OFF, Disabled
  4079                           ;	Code Protect 02000-03FFF
  4080                           ;	CP1 = OFF, Disabled
  4081                           ;	Code Protect 04000-05FFF
  4082                           ;	CP2 = OFF, Disabled
  4083                           ;	Code Protect 06000-07FFF
  4084                           ;	CP3 = OFF, Disabled
  4085   300008                     	org	3145736
  4086   300008  0F                 	db	15
  4087                           
  4088                           ;Config register CONFIG5H @ 0x300009
  4089                           ;	Code Protect Boot
  4090                           ;	CPB = OFF, Disabled
  4091                           ;	Data EE Read Protect
  4092                           ;	CPD = OFF, Disabled
  4093   300009                     	org	3145737
  4094   300009  C0                 	db	192
  4095                           
  4096                           ;Config register CONFIG6L @ 0x30000A
  4097                           ;	Table Write Protect 00800-01FFF
  4098                           ;	WRT0 = OFF, Disabled
  4099                           ;	Table Write Protect 02000-03FFF
  4100                           ;	WRT1 = OFF, Disabled
  4101                           ;	Table Write Protect 04000-05FFF
  4102                           ;	WRT2 = OFF, Disabled
  4103                           ;	Table Write Protect 06000-07FFF
  4104                           ;	WRT3 = OFF, Disabled
  4105   30000A                     	org	3145738
  4106   30000A  0F                 	db	15
  4107                           
  4108                           ;Config register CONFIG6H @ 0x30000B
  4109                           ;	Config. Write Protect
  4110                           ;	WRTC = OFF, Disabled
  4111                           ;	Table Write Protect Boot
  4112                           ;	WRTB = OFF, Disabled
  4113                           ;	Data EE Write Protect
  4114                           ;	WRTD = OFF, Disabled
  4115   30000B                     	org	3145739
  4116   30000B  E0                 	db	224
  4117                           
  4118                           ;Config register CONFIG7L @ 0x30000C
  4119                           ;	Table Read Protect 00800-01FFF
  4120                           ;	EBTR0 = OFF, Disabled
  4121                           ;	Table Read Protect 02000-03FFF
  4122                           ;	EBTR1 = OFF, Disabled
  4123                           ;	Table Read Protect 04000-05FFF
  4124                           ;	EBTR2 = OFF, Disabled
  4125                           ;	Table Read Protect 06000-07FFF
  4126                           ;	EBTR3 = OFF, Disabled
  4127   30000C                     	org	3145740
  4128   30000C  0F                 	db	15
  4129                           
  4130                           ;Config register CONFIG7H @ 0x30000D
  4131                           ;	Table Read Protect Boot
  4132                           ;	EBTRB = OFF, Disabled
  4133   30000D                     	org	3145741
  4134   30000D  40                 	db	64
  4135                           tosu	equ	0xFFF
  4136                           tosh	equ	0xFFE
  4137                           tosl	equ	0xFFD
  4138                           stkptr	equ	0xFFC
  4139                           pclatu	equ	0xFFB
  4140                           pclath	equ	0xFFA
  4141                           pcl	equ	0xFF9
  4142                           tblptru	equ	0xFF8
  4143                           tblptrh	equ	0xFF7
  4144                           tblptrl	equ	0xFF6
  4145                           tablat	equ	0xFF5
  4146                           prodh	equ	0xFF4
  4147                           prodl	equ	0xFF3
  4148                           indf0	equ	0xFEF
  4149                           postinc0	equ	0xFEE
  4150                           postdec0	equ	0xFED
  4151                           preinc0	equ	0xFEC
  4152                           plusw0	equ	0xFEB
  4153                           fsr0h	equ	0xFEA
  4154                           fsr0l	equ	0xFE9
  4155                           wreg	equ	0xFE8
  4156                           indf1	equ	0xFE7
  4157                           postinc1	equ	0xFE6
  4158                           postdec1	equ	0xFE5
  4159                           preinc1	equ	0xFE4
  4160                           plusw1	equ	0xFE3
  4161                           fsr1h	equ	0xFE2
  4162                           fsr1l	equ	0xFE1
  4163                           bsr	equ	0xFE0
  4164                           indf2	equ	0xFDF
  4165                           postinc2	equ	0xFDE
  4166                           postdec2	equ	0xFDD
  4167                           preinc2	equ	0xFDC
  4168                           plusw2	equ	0xFDB
  4169                           fsr2h	equ	0xFDA
  4170                           fsr2l	equ	0xFD9
  4171                           status	equ	0xFD8

Data Sizes:
    Strings     38
    Constant    0
    Data        0
    BSS         67
    Persistent  11
    Stack       0

Auto Spaces:
    Space          Size  Autos    Used
    COMRAM           94     70      88
    BANK0           160      5      65
    BANK1           256      0       0
    BANK2           256      0       0
    BANK3           256      0       0
    BANK4           256      0       0
    BANK5           256      0       0
    BANK6           256      0       0
    BANK7           256      0       0
    BANK8           256      0       0
    BANK9           256      0       0
    BANK10          256      0       0
    BANK11          256      0       0
    BANK12          256      0       0
    BANK13          256      0       0
    BANK14           65      0       0

Pointer List with Targets:

    vfpfcnvrt@ap	PTR PTR void  size(2) Largest target is 2
		 -> printf@ap(COMRAM[2]), 

    S1290$source	PTR const unsigned char  size(2) Largest target is 0

    fputc@fp...source	PTR const unsigned char  size(2) Largest target is 0

    S1290$buffer	PTR unsigned char  size(2) Largest target is 0

    fputc@fp...buffer	PTR unsigned char  size(2) Largest target is 0

    fputc@fp	PTR struct _IO_FILE size(2) Largest target is 0
		 -> NULL(NULL[0]), 

    vfprintf@ap	PTR PTR void  size(2) Largest target is 2
		 -> printf@ap(COMRAM[2]), 

    vfprintf@fp	PTR struct _IO_FILE size(2) Largest target is 0
		 -> NULL(NULL[0]), 

    vfprintf@fmt	PTR const unsigned char  size(2) Largest target is 38
		 -> STR_2(CODE[38]), STR_1(CODE[38]), 

    vfprintf@cfmt	PTR unsigned char  size(2) Largest target is 38
		 -> STR_2(CODE[38]), STR_1(CODE[38]), 

    vfpfcnvrt@fp	PTR struct _IO_FILE size(2) Largest target is 0
		 -> NULL(NULL[0]), 

    vfpfcnvrt@fmt	PTR PTR unsigned char  size(2) Largest target is 2
		 -> vfprintf@cfmt(COMRAM[2]), 

    S1325$vp	PTR void  size(2) Largest target is 0

    convarg.vp	PTR void  size(2) Largest target is 0

    printf@fmt	PTR const unsigned char  size(2) Largest target is 38
		 -> STR_2(CODE[38]), STR_1(CODE[38]), 

    printf@ap	PTR void [1] size(2) Largest target is 2
		 -> ?_printf(COMRAM[2]), 

    EUSART1_SetRxInterruptHandler@interruptHandler	PTR FTN()void  size(2) Largest target is 1
		 -> EUSART1_Receive_ISR(), 

    EUSART1_SetTxInterruptHandler@interruptHandler	PTR FTN()void  size(2) Largest target is 1
		 -> EUSART1_Transmit_ISR(), 

    EUSART1_SetErrorHandler@interruptHandler	PTR FTN()void  size(2) Largest target is 1
		 -> EUSART1_DefaultErrorHandler(), 

    EUSART1_SetOverrunErrorHandler@interruptHandler	PTR FTN()void  size(2) Largest target is 1
		 -> EUSART1_DefaultOverrunErrorHandler(), 

    EUSART1_SetFramingErrorHandler@interruptHandler	PTR FTN()void  size(2) Largest target is 1
		 -> EUSART1_DefaultFramingErrorHandler(), 

    EUSART1_ErrorHandler	PTR FTN()void  size(2) Largest target is 1
		 -> Absolute function(), EUSART1_DefaultErrorHandler(), 

    EUSART1_OverrunErrorHandler	PTR FTN()void  size(2) Largest target is 1
		 -> Absolute function(), EUSART1_DefaultOverrunErrorHandler(), 

    EUSART1_FramingErrorHandler	PTR FTN()void  size(2) Largest target is 1
		 -> Absolute function(), EUSART1_DefaultFramingErrorHandler(), 

    EUSART1_RxDefaultInterruptHandler	PTR FTN()void  size(2) Largest target is 1
		 -> Absolute function(), EUSART1_Receive_ISR(), 

    EUSART1_TxDefaultInterruptHandler	PTR FTN()void  size(2) Largest target is 1
		 -> Absolute function(), EUSART1_Transmit_ISR(), 


Critical Paths under _main in COMRAM

    _main->_PWM2_LoadDutyValue
    _videecran->_EUSART1_Write
    _trouver_CPPR->___flmul
    ___flmul->___fldiv
    _printf->_vfprintf
    _vfprintf->_vfpfcnvrt
    _vfpfcnvrt->_fputc
    _fputc->_putch
    _putch->_EUSART1_Write
    _ecranAllume->_EUSART1_Write
    _EUSART1_Initialize->_EUSART1_SetErrorHandler
    _EUSART1_Initialize->_EUSART1_SetFramingErrorHandler
    _EUSART1_Initialize->_EUSART1_SetOverrunErrorHandler
    _EUSART1_Initialize->_EUSART1_SetRxInterruptHandler
    _EUSART1_Initialize->_EUSART1_SetTxInterruptHandler
    _PWM2_LoadDutyValue->_trouver_CPPR

Critical Paths under _INTERRUPT_InterruptManager in COMRAM

    None.

Critical Paths under _main in BANK0

    None.

Critical Paths under _INTERRUPT_InterruptManager in BANK0

    None.

Critical Paths under _main in BANK1

    None.

Critical Paths under _INTERRUPT_InterruptManager in BANK1

    None.

Critical Paths under _main in BANK2

    None.

Critical Paths under _INTERRUPT_InterruptManager in BANK2

    None.

Critical Paths under _main in BANK3

    None.

Critical Paths under _INTERRUPT_InterruptManager in BANK3

    None.

Critical Paths under _main in BANK4

    None.

Critical Paths under _INTERRUPT_InterruptManager in BANK4

    None.

Critical Paths under _main in BANK5

    None.

Critical Paths under _INTERRUPT_InterruptManager in BANK5

    None.

Critical Paths under _main in BANK6

    None.

Critical Paths under _INTERRUPT_InterruptManager in BANK6

    None.

Critical Paths under _main in BANK7

    None.

Critical Paths under _INTERRUPT_InterruptManager in BANK7

    None.

Critical Paths under _main in BANK8

    None.

Critical Paths under _INTERRUPT_InterruptManager in BANK8

    None.

Critical Paths under _main in BANK9

    None.

Critical Paths under _INTERRUPT_InterruptManager in BANK9

    None.

Critical Paths under _main in BANK10

    None.

Critical Paths under _INTERRUPT_InterruptManager in BANK10

    None.

Critical Paths under _main in BANK11

    None.

Critical Paths under _INTERRUPT_InterruptManager in BANK11

    None.

Critical Paths under _main in BANK12

    None.

Critical Paths under _INTERRUPT_InterruptManager in BANK12

    None.

Critical Paths under _main in BANK13

    None.

Critical Paths under _INTERRUPT_InterruptManager in BANK13

    None.

Critical Paths under _main in BANK14

    None.

Critical Paths under _INTERRUPT_InterruptManager in BANK14

    None.

Call Graph Tables:

 ---------------------------------------------------------------------------------
 (Depth) Function   	        Calls       Base Space   Used Autos Params    Refs
 ---------------------------------------------------------------------------------
 (0) _main                                                 5     5      0    8809
                                              0 BANK0      5     5      0
                       _EUSART1_Read
                 _PWM2_LoadDutyValue
                  _SYSTEM_Initialize
                        _ecranAllume
                             _printf
                       _trouver_CPPR
                          _videecran
 ---------------------------------------------------------------------------------
 (1) _videecran                                            0     0      0      62
                      _EUSART1_Write
 ---------------------------------------------------------------------------------
 (1) _trouver_CPPR                                        12     8      4    5672
                                             54 COMRAM    12     8      4
                            ___fldiv
                            ___flmul
                            ___fltol
 ---------------------------------------------------------------------------------
 (2) ___fltol                                             10     6      4     427
                                              4 COMRAM    10     6      4
 ---------------------------------------------------------------------------------
 (2) ___flmul                                             25    17      8    2693
                                             29 COMRAM    25    17      8
                            ___fldiv (ARG)
 ---------------------------------------------------------------------------------
 (2) ___fldiv                                             25    17      8    2183
                                              4 COMRAM    25    17      8
 ---------------------------------------------------------------------------------
 (1) _printf                                               6     4      2    1940
                                             29 COMRAM     4     2      2
                           _vfprintf
 ---------------------------------------------------------------------------------
 (2) _vfprintf                                             8     2      6    1685
                                             21 COMRAM     8     2      6
                          _vfpfcnvrt
 ---------------------------------------------------------------------------------
 (3) _vfpfcnvrt                                           22    16      6    1233
                                             15 COMRAM     6     0      6
                              _fputc
 ---------------------------------------------------------------------------------
 (4) _fputc                                                9     5      4     777
                                              6 COMRAM     9     5      4
                              _putch
 ---------------------------------------------------------------------------------
 (5) _putch                                                1     1      0      93
                                              5 COMRAM     1     1      0
                      _EUSART1_Write
 ---------------------------------------------------------------------------------
 (1) _ecranAllume                                          0     0      0      62
                      _EUSART1_Write
 ---------------------------------------------------------------------------------
 (2) _EUSART1_Write                                        1     1      0      62
                                              4 COMRAM     1     1      0
 ---------------------------------------------------------------------------------
 (1) _SYSTEM_Initialize                                    0     0      0     605
                 _EUSART1_Initialize
               _INTERRUPT_Initialize
              _OSCILLATOR_Initialize
             _PIN_MANAGER_Initialize
                    _PWM2_Initialize
                    _TMR2_Initialize
 ---------------------------------------------------------------------------------
 (2) _TMR2_Initialize                                      0     0      0       0
 ---------------------------------------------------------------------------------
 (2) _PWM2_Initialize                                      0     0      0       0
 ---------------------------------------------------------------------------------
 (2) _PIN_MANAGER_Initialize                               0     0      0       0
 ---------------------------------------------------------------------------------
 (2) _OSCILLATOR_Initialize                                0     0      0       0
 ---------------------------------------------------------------------------------
 (2) _INTERRUPT_Initialize                                 0     0      0       0
 ---------------------------------------------------------------------------------
 (2) _EUSART1_Initialize                                   0     0      0     605
            _EUSART1_SetErrorHandler
     _EUSART1_SetFramingErrorHandler
     _EUSART1_SetOverrunErrorHandler
      _EUSART1_SetRxInterruptHandler
      _EUSART1_SetTxInterruptHandler
 ---------------------------------------------------------------------------------
 (3) _EUSART1_SetTxInterruptHandler                        2     0      2     121
                                              4 COMRAM     2     0      2
 ---------------------------------------------------------------------------------
 (3) _EUSART1_SetRxInterruptHandler                        2     0      2     121
                                              4 COMRAM     2     0      2
 ---------------------------------------------------------------------------------
 (3) _EUSART1_SetOverrunErrorHandler                       2     0      2     121
                                              4 COMRAM     2     0      2
 ---------------------------------------------------------------------------------
 (3) _EUSART1_SetFramingErrorHandler                       2     0      2     121
                                              4 COMRAM     2     0      2
 ---------------------------------------------------------------------------------
 (3) _EUSART1_SetErrorHandler                              2     0      2     121
                                              4 COMRAM     2     0      2
 ---------------------------------------------------------------------------------
 (1) _PWM2_LoadDutyValue                                   4     2      2     332
                                             66 COMRAM     4     2      2
                       _trouver_CPPR (ARG)
 ---------------------------------------------------------------------------------
 (1) _EUSART1_Read                                         1     1      0      37
                                              4 COMRAM     1     1      0
 ---------------------------------------------------------------------------------
 Estimated maximum stack depth 5
 ---------------------------------------------------------------------------------
 (Depth) Function   	        Calls       Base Space   Used Autos Params    Refs
 ---------------------------------------------------------------------------------
 (7) _INTERRUPT_InterruptManager                           4     4      0       0
                                              0 COMRAM     4     4      0
                   Absolute function *
                _EUSART1_Receive_ISR *
               _EUSART1_Transmit_ISR *
 ---------------------------------------------------------------------------------
 (8) _EUSART1_Transmit_ISR                                 0     0      0       0
 ---------------------------------------------------------------------------------
 (8) _EUSART1_Receive_ISR                                  0     0      0       0
                   Absolute function *
        _EUSART1_DefaultErrorHandler *
 _EUSART1_DefaultFramingErrorHandler *
 _EUSART1_DefaultOverrunErrorHandler *
              _EUSART1_RxDataHandler
 ---------------------------------------------------------------------------------
 (9) _EUSART1_DefaultOverrunErrorHandler                   0     0      0       0
 ---------------------------------------------------------------------------------
 (9) _EUSART1_DefaultFramingErrorHandler                   0     0      0       0
 ---------------------------------------------------------------------------------
 (9) _EUSART1_DefaultErrorHandler                          0     0      0       0
              _EUSART1_RxDataHandler
 ---------------------------------------------------------------------------------
 (9) _EUSART1_RxDataHandler                                0     0      0       0
 ---------------------------------------------------------------------------------
 (9) Absolute function(Fake)                               0     0      0       0
 ---------------------------------------------------------------------------------
 Estimated maximum stack depth 9
 ---------------------------------------------------------------------------------

 Call Graph Graphs:

 _main (ROOT)
   _EUSART1_Read
   _PWM2_LoadDutyValue
     _trouver_CPPR (ARG)
       ___fldiv
       ___flmul
         ___fldiv (ARG)
       ___fltol
   _SYSTEM_Initialize
     _EUSART1_Initialize
       _EUSART1_SetErrorHandler
       _EUSART1_SetFramingErrorHandler
       _EUSART1_SetOverrunErrorHandler
       _EUSART1_SetRxInterruptHandler
       _EUSART1_SetTxInterruptHandler
     _INTERRUPT_Initialize
     _OSCILLATOR_Initialize
     _PIN_MANAGER_Initialize
     _PWM2_Initialize
     _TMR2_Initialize
   _ecranAllume
     _EUSART1_Write
   _printf
     _vfprintf
       _vfpfcnvrt
         _fputc
           _putch
             _EUSART1_Write
   _trouver_CPPR
   _videecran
     _EUSART1_Write

 _INTERRUPT_InterruptManager (ROOT)
   Absolute function(Fake) *
   _EUSART1_Receive_ISR *
     Absolute function(Fake) *
     _EUSART1_DefaultErrorHandler *
       _EUSART1_RxDataHandler
     _EUSART1_DefaultFramingErrorHandler *
     _EUSART1_DefaultOverrunErrorHandler *
     _EUSART1_RxDataHandler *
   _EUSART1_Transmit_ISR *

 Address spaces:
Name               Size   Autos  Total    Cost      Usage
BIGRAM             E40      0       0      49        0.0%
EEDATA             400      0       0       0        0.0%
BITBIGSFRlll       10F      0       0      37        0.0%
BITBANK13          100      0       0      46        0.0%
BANK13             100      0       0      23        0.0%
BITBANK12          100      0       0      45        0.0%
BANK12             100      0       0      22        0.0%
BITBANK11          100      0       0      20        0.0%
BANK11             100      0       0      21        0.0%
BITBANK10          100      0       0      44        0.0%
BANK10             100      0       0      19        0.0%
BITBANK9           100      0       0      43        0.0%
BANK9              100      0       0      18        0.0%
BITBANK8           100      0       0      42        0.0%
BANK8              100      0       0      17        0.0%
BITBANK7           100      0       0      41        0.0%
BANK7              100      0       0      16        0.0%
BITBANK6           100      0       0      40        0.0%
BANK6              100      0       0      15        0.0%
BITBANK5           100      0       0      39        0.0%
BANK5              100      0       0      14        0.0%
BITBANK4           100      0       0      12        0.0%
BANK4              100      0       0      13        0.0%
BITBANK3           100      0       0      10        0.0%
BANK3              100      0       0      11        0.0%
BITBANK2           100      0       0       8        0.0%
BANK2              100      0       0       9        0.0%
BITBANK1           100      0       0       6        0.0%
BANK1              100      0       0       7        0.0%
BITBANK0            A0      0       0       4        0.0%
BANK0               A0      5      41       5       40.6%
BITCOMRAM           5E      0       0       0        0.0%
COMRAM              5E     46      58       1       93.6%
BITBANK14           41      0       0      47        0.0%
BANK14              41      0       0      48        0.0%
BITBIGSFRlhl        1F      0       0      35        0.0%
BITBIGSFRhhlh       1D      0       0      25        0.0%
BITBIGSFRhhllhl     1A      0       0      28        0.0%
BITBIGSFRhhh         D      0       0      24        0.0%
BITBIGSFRlhh         B      0       0      34        0.0%
BITBIGSFRllh         8      0       0      36        0.0%
BITBIGSFRhhllhl      8      0       0      30        0.0%
BITBIGSFRhl          6      0       0      33        0.0%
BITBIGSFRhhlll       4      0       0      32        0.0%
BITBIGSFRhhllhl      3      0       0      27        0.0%
BITBIGSFRhhllhl      3      0       0      29        0.0%
BITBIGSFRhhllhh      1      0       0      26        0.0%
BITBIGSFRhhllhl      1      0       0      31        0.0%
BIGSFR               0      0       0     200        0.0%
BITSFR_2             0      0       0     200        0.0%
SFR_2                0      0       0     200        0.0%
BITSFR_1             0      0       0     200        0.0%
SFR_1                0      0       0     200        0.0%
BITSFR               0      0       0     200        0.0%
SFR                  0      0       0     200        0.0%
STACK                0      0       0       2        0.0%
NULL                 0      0       0       0        0.0%
ABS                  0      0      99      38        0.0%
DATA                 0      0      99       3        0.0%
CODE                 0      0       0       0        0.0%


Microchip Technology PIC18 Macro Assembler V2.40 build 20220703182018 
Symbol Table                                                                                   Mon Feb 17 20:40:40 2025

                      _eusart1TxBufferRemaining 0058                                    ___fldiv@aexp 001D  
                                  ___fldiv@bexp 001C                                    ___fldiv@sign 0015  
                                            l25 1E90                                              l51 1EF6  
                                            l54 1F1A                                              l69 1F90  
                                           l221 1F80                                             l215 1F76  
                                           l224 1F58                                             l322 1E3E  
                                           l218 1F6C                                             l227 1F62  
                                           l155 1CD8                                             l180 1D02  
                                           l261 1F36                                             l174 1D7E  
                                           l270 1F28                                             l319 1F08  
                                           l183 1D2E                                             l256 1A8E  
                                           l186 1F4E                                             l179 1CEC  
                                           l622 18F0                                             l289 1F44  
                                           l920 1708                                             l912 160E  
                                           l921 16F6                                             l907 17EA  
                                           l909 164A                                             l918 1690  
                                           l943 1450                                             l946 12E2  
                                           l939 10EC                                             l956 1412  
                                           l948 135A                                             l949 1348  
                                           _PR2 000FCB                                 _TMR2_Initialize 1F38  
                                           tosl 000FFD                                             wreg 000FE8  
                                    _TXSTA1bits 000FAC                                    ___flmul@aexp 002B  
                                  ___flmul@bexp 0030                                    ___flmul@sign 002A  
                                  ___flmul@temp 0035                                    ___flmul@prod 0031  
                                  ___fltol@exp1 000E                                            l1003 1EDC  
                                          l1035 1DCC                                            l1029 1C64  
                                          l1047 1BE6                                            l2211 1CDC  
                                          l2301 1C86                                            l2221 1D16  
                                          l2213 1CDC                                            l2311 1CA2  
                                          l2303 1C8A                                            l2223 1D26  
                                          l2215 1CFA                                            l2231 1B52  
                                          l2313 1CAE                                            l2305 1C8E  
                                          l2225 1D2A                                            l2217 1D04  
                                          l2241 1BD4                                            l2233 1B64  
                                          l2401 165A                                            l2321 146C  
                                          l2251 1F64                                            l2315 1CD6  
                                          l2307 1C92                                            l2219 1D14  
                                          l2227 1D2C                                            l2235 1B76  
                                          l2403 1670                                            l2411 16A0  
                                          l2331 14A0                                            l2323 146E  
                                          l2253 1F78                                            l2245 1F5A  
                                          l2309 1C96                                            l2229 1F48  
                                          l2237 1B80                                            l2261 1C26  
                                          l2413 16AE                                            l2405 1676  
                                          l2341 14D2                                            l2325 147E  
                                          l2333 14A8                                            l2317 1452  
                                          l2501 114C                                            l2247 1F50  
                                          l2239 1B9E                                            l2263 1C2A  
                                          l2255 1BE8                                            l2423 1718  
                                          l2431 1760                                            l2415 16B2  
                                          l2407 1680                                            l2351 1506  
                                          l2343 14D4                                            l2335 14B8  
                                          l2327 148E                                            l2319 145E  
                                          l2511 1196                                            l2503 1158  
                                          l2249 1F6E                                            l2281 1F0A  
                                          l2273 1E6A                                            l2257 1C0C  
                                          l2441 17CA                                            l2433 177A  
                                          l2425 1724                                            l2417 16C0  
                                          l2409 168E                                            l2361 154C  
                                          l2345 14E4                                            l2353 150E  
                                          l2337 14BE                                            l2329 149E  
                                          l2521 11E8                                            l2513 11A2  
                                          l2505 1170                                            l2601 1864  
                                          l2275 1E7A                                            l2283 1EF8  
                                          l2291 1F3E                                            l2259 1C1A  
                                          l2267 1C3C                                            l2443 17D8  
                                          l2435 1790                                            l2427 1732  
                                          l2419 16EE                                            l2371 1574  
                                          l2363 1550                                            l2355 151E  
                                          l2347 14F4                                            l2339 14C4  
                                          l2531 1266                                            l2523 11F8  
                                          l2515 11B2                                            l2507 117C  
                                          l2611 1890                                            l2293 1C66  
                                          l2277 1E8E                                            l2285 1F06  
                                          l2445 17DE                                            l2437 17AA  
                                          l2429 175C                                            l2381 15C2  
                                          l2357 1534                                            l2349 1504  
                                          l2541 12E0                                            l2533 129C  
                                          l2525 1214                                            l2517 11BE  
                                          l2509 1188                                            l2461 1044  
                                          l2621 18C0                                            l2701 190A  
                                          l2295 1C68                                            l2279 1F8E  
                                          l2287 1F38                                            l2631 1D8C  
                                          l2447 17E0                                            l2439 17C6  
                                          l2391 160C                                            l2383 15D2  
                                          l2375 1588                                            l2359 1544  
                                          l2367 1564                                            l2551 1340  
                                          l2543 12F2                                            l2535 12AA  
                                          l2527 1220                                            l2519 11CE  
                                          l2471 108A                                            l2463 1054  
                                          l2455 1028                                            l2623 18D0  
                                          l2607 187C                                            l2711 1952  
                                          l2703 190E                                            l2297 1C74  
                                          l2289 1F3A                                            l2641 1EE2  
                                          l2633 1DA8                                            l2393 1618  
                                          l2385 15DA                                            l2377 15A2  
                                          l2369 1574                                            l2561 13AE  
                                          l2545 1300                                            l2537 12C8  
                                          l2529 123C                                            l2481 10B6  
                                          l2473 1090                                            l2465 1064  
                                          l2457 1034                                            l2625 18E0  
                                          l2617 18A4                                            l2609 1886  
                                          l2713 1966                                            l2705 1916  
                                          l2651 1D30                                            l2299 1C82  
                                          l2643 1EE6                                            l2635 1DC4  
                                          l2395 1636                                            l2387 15EA  
                                          l2379 15B2                                            l2571 1416  
                                          l2555 136A                                            l2563 13B2  
                                          l2547 1304                                            l2539 12D2  
                                          l2491 110C                                            l2483 10C6  
                                          l2475 1096                                            l2467 1074  
                                          l2459 1042                                            l2619 18B0  
                                          l2715 1986                                            l2707 1926  
                                          l2661 1D72                                            l2653 1D30  
                                          l2645 1EEA                                            l2629 1D80  
                                          l2397 1638                                            l2389 15FE  
                                          l2581 1440                                            l2573 1426  
                                          l2565 13CC                                            l2557 1376  
                                          l2549 1312                                            l2485 10D6  
                                          l2477 10A4                                            l2469 107A  
                                          l2717 199A                                            l2709 1946  
                                          l2663 1D76                                            l2655 1D40  
                                          l2647 1EEE                                            l2639 1EDE  
                                          l2399 1648                                            l2575 1434  
                                          l2567 13E0                                            l2559 1384  
                                          l2495 1120                                            l2487 10DC  
                                          l2479 10A6                                            l2591 1816  
                                          l2665 1D78                                            l2657 1D60  
                                          l2649 1EF2                                            l2673 1EB8  
                                          l2577 1436                                            l2569 13FA  
                                          l2497 112C                                            l2489 10FC  
                                          l2593 1840                                            l2585 17EC  
                                          l2681 1F1C                                            l2667 1D7A  
                                          l2659 1D62                                            l2675 1EC0  
                                          l2579 143C                                            l2499 1136  
                                          l2595 1842                                            l2587 1802  
                                          l2683 19C2                                            l2691 18F2  
                                          l2669 1D7C                                            l2597 1852  
                                          l2685 1A72                                            l2693 18F6  
                                          l2679 1F2A                                            l2599 1856  
                                          l2695 18F8                                            l2689 1E0E  
                                          l2697 18FA                                            l2699 1906  
                                          STR_1 1001                                            STR_2 1001  
                                          u2000 1300                                            u2001 12FC  
                                          u2010 1312                                            u2011 130E  
                                          u2020 1340                                            u2100 1836  
                                          u2021 133C                                            u2030 1356  
                                          u2110 1864                                            u2031 1352  
                                          u2111 1860                                            u2040 136A  
                                          u2120 1878                                            u2200 199A  
                                          u2041 1366                                            u2121 1874  
                                          u2105 182C                                            u2201 1996  
                                          u2050 1384                                            u2130 18A0  
                                          u2051 1380                                            u2131 189C  
                                          u2060 13CC                                            u2140 18C0  
                                          u2061 13C8                                            u2141 18BC  
                                          _LATA 000F89                                            u2070 13FA  
                                          u2150 18D0                                            _LATB 000F8A  
                                          u2071 13F6                                            u2151 18CC  
                                          _LATC 000F8B                                            u1600 1CFA  
                                          u2160 1DC4                                            u2080 1434  
                                          u1601 1CF6                                            u2161 1DC0  
                                          u2081 1430                                            u2170 1D40  
                                          u1610 1D26                                            u2090 1802  
                                          u2171 1D3C                                            u1611 1D22  
                                          u2091 17FE                                            u2180 1D72  
                                          u1620 1B64                                            u1700 14D2  
                                          u2181 1D6E                                            u1621 1B60  
                                          u1701 14CE                                            u1630 1B76  
                                          u1710 14E4                                            u2190 1966  
                                          u1631 1B72                                            u1711 14E0  
                                          u2191 1962                                            u1640 1B9E  
                                          u1800 168E                                            u1720 14F4  
                                          u1641 1B9A                                            u1801 168A  
                                          u1721 14F0                                            u1650 1BD4  
                                          u1810 16AE                                            u1730 1534  
                                          u1651 1BD0                                            u1811 16AA  
                                          u1731 1530                                            u1660 1C0C  
                                          u1820 16C0                                            u1740 1574  
                                          u1900 1042                                            u1661 1C08  
                                          u1821 16BC                                            u1741 1570  
                                          u1901 103E                                            u1590 1CEC  
                                          u1830 16EE                                            u1750 15EA  
                                          u1670 146C                                            u1910 1054  
                                          u1591 1CE8                                            u1831 16EA  
                                          u1751 15E6                                            u1671 1468  
                                          u1911 1050                                            u1840 1704  
                                          u1760 160C                                            u1680 147E  
                                          u1920 1064                                            u1841 1700  
                                          u1761 1608                                            u1681 147A  
                                          u1921 1060                                            u1850 1718  
                                          u1770 1636                                            u1690 148E  
                                          u1930 10A4                                            u1851 1714  
                                          u1771 1632                                            u1691 148A  
                                          u1931 10A0                                            u1860 1732  
                                          u1780 165A                                            u1940 10B6  
                                          u1861 172E                                            u1781 1656  
                                          u1941 10B2                                            u1870 177A  
                                          u1790 1670                                            u1950 10C6  
                                          u1871 1776                                            u1791 166C  
                                          u1951 10C2                                            u1880 17AA  
                                          u1960 10FC                                            u1881 17A6  
                                          u1961 10F8                                            u1890 17D8  
                                          u1970 110C                                            u1891 17D4  
                                          u1971 1108                                            u1980 1286  
                                          u1990 12E0                                            u1991 12DC  
                                          u1985 127C                                            i2l80 009C  
                                          i2l75 0062                                            i2l76 009C  
                                          _TMR2 000FCC                                            _WPUB 000F5B  
                                 _EUSART1_Write 1CDA                                            _dbuf 0060  
                                          _main 18F2                                   ?_EUSART1_Read 0001  
                                          _prec 0049                                            fsr1h 000FE2  
                                          fsr2h 000FDA                                            indf2 000FDF  
                                          fsr1l 000FE1                                            fsr2l 000FD9  
                                          btemp 0059                                            prodh 000FF4  
                                          prodl 000FF3                                            start 00B0  
                                   main@vitesse 0098                                 ___fldiv@new_exp 0016  
                fp__EUSART1_DefaultErrorHandler 0000                                    ___param_bank 000000  
                       __end_of_PWM2_Initialize 1F0A                   __end_of_OSCILLATOR_Initialize 1F1C  
                         _eusart1RxStatusBuffer 0080                                   ___fltol@sign1 000D  
                                         ?_main 0001                                 __end_of___fldiv 17EC  
                               __end_of___flmul 1452                                 __end_of___fltol 18F2  
                                         _T2CON 000FCA                                           i2l203 1E68  
                                         i2l212 1F8C                                           i2l206 1F92  
                                         i2l209 1F86                                           i2l192 1E0C  
                                         i2l189 1E0A                                           i2l199 1B50  
                                  vfpfcnvrt@fmt 0012                                           _TRISA 000F92  
                                         _TRISB 000F93                                           _TRISC 000F94  
                              trouver_CPPR@ccpr 003B                            _EUSART1_Transmit_ISR 1DCE  
                              trouver_CPPR@duty 0037                                           _flags 004B  
                                         _fputc 1B52                                           _width 0047  
                                         _putch 1F46                                  ?_EUSART1_Write 0001  
                                         pclath 000FFA                                           pclatu 000FFB  
                                         tablat 000FF5                                  ??_EUSART1_Read 0005  
                                         ttemp5 005A                                           ttemp6 005D  
                                         ttemp7 0061                                           status 000FD8  
                                         wtemp8 005A           fp__EUSART1_DefaultFramingErrorHandler 0000  
    __end_of_EUSART1_DefaultFramingErrorHandler 1F94            ??_EUSART1_DefaultFramingErrorHandler 0001  
           ?_EUSART1_DefaultFramingErrorHandler 0001              _EUSART1_DefaultFramingErrorHandler 1F92  
                               __initialization 1E92                      __end_of_EUSART1_Initialize 1CDA  
                                  __end_of_main 19C2                         __end_of_TMR2_Initialize 1F46  
                   ?_INTERRUPT_InterruptManager 0001                                          ??_main 0047  
                                 __activetblptr 000002                           ?_EUSART1_Transmit_ISR 0001  
                                        ?_fputc 0007                                          _CCPR2H 000F52  
                                        _CCPR2L 000F51                                          _ANCON0 000F5D  
                                        _ANCON1 000F5C                                          ?_putch 0001  
                                        i2l2121 1E00                                          i2l2113 1DCE  
                                        i2l2131 1ABE                                          i2l2123 1E04  
                                        i2l2115 1DDE                                          i2l2141 1B2C  
                                        i2l2133 1AD8                                          i2l2125 1A90  
                                        i2l2117 1DEE                                          i2l2143 1B4C  
                                        i2l2135 1AE6                                          i2l2127 1AA0  
                                        i2l2119 1DF0                                          i2l2137 1AF6  
                                        i2l2129 1AAE                                          i2l2139 1B10  
                                        i2l2171 0070                                          i2l2163 001A  
                                        i2l1701 1E40                                          i2l2173 007E  
                                        i2l2165 0028                                          i2l1703 1E50  
                                        i2l2167 0036                                          i2l1705 1E52  
                                        i2l2169 0044                                          i2l1707 1E62  
                                        i2l1709 1E66                                          i2l1753 1F82  
                                        i2l1755 1F88                                          _RCREG1 000FAE  
                                        _RCSTA1 000FAB                                          _OSCCON 000FD3  
                                        _SPBRG1 000FAF                                    _trouver_CPPR 19C2  
                                        _TXREG1 000FAD                                          _TXSTA1 000FAC  
                                  vfprintf@cfmt 001C                                       ??___fldiv 000D  
                                     ??___flmul 0026                                       ??___fltol 0009  
                      ?_EUSART1_SetErrorHandler 0005                                ?_PWM2_Initialize 0001  
                                        clear_0 1E98                                          clear_1 1EA4  
                                        isa$std 000001                                          _printf 1EB8  
              ??_EUSART1_SetOverrunErrorHandler 0007                 ?_EUSART1_SetOverrunErrorHandler 0005  
                                        fputc@c 0007                                    __mediumconst 0000  
                                        tblptrh 000FF7                                          tblptrl 000FF6  
                                        tblptru 000FF8                                __end_of_vfprintf 1DCE  
                               ??_EUSART1_Write 0005                                 _eusart1RxBuffer 0088  
                               _eusart1TxBuffer 0090                               _SYSTEM_Initialize 1EDE  
                                    __accesstop 0060                         __end_of__initialization 1EAA  
                            ?_SYSTEM_Initialize 0001                      __end_of_PWM2_LoadDutyValue 1E40  
                                 ___rparam_used 000001                                      ___fltol@f1 0005  
                 __end_of_EUSART1_RxDataHandler 1E6A                                  __pcstackCOMRAM 0001  
                           ??_SYSTEM_Initialize 0007                                   __end_of_fputc 1BE8  
                                 __end_of_putch 1F50                                ?_TMR2_Initialize 0001  
                          __end_of_EUSART1_Read 1D80                          ??_EUSART1_Transmit_ISR 0001  
                   __end_of_EUSART1_Receive_ISR 1B52                                         ??_fputc 000B  
                     __end_of_SYSTEM_Initialize 1EF8                                         ??_putch 0006  
                                 _eusart1RxHead 004F                                   _eusart1TxHead 0051  
                                 _eusart1RxTail 004E                                      __pbssBANK0 0060  
                                 _eusart1TxTail 0050               _EUSART1_TxDefaultInterruptHandler 0056  
               ??_EUSART1_SetRxInterruptHandler 0007                                      __pnvCOMRAM 0052  
               __end_of_EUSART1_SetErrorHandler 1F82                                         _CCP2CON 000F50  
                                       ?_printf 001E          __end_of_EUSART1_SetFramingErrorHandler 1F78  
                _EUSART1_SetFramingErrorHandler 1F6E                    ?_EUSART1_DefaultErrorHandler 0001  
                                       _REFOCON 000F9A                                         _OSCCON2 000FD2  
                                       _OSCTUNE 000F9B                                         _SPBRGH1 000F7D  
                                       i2u88_40 1E62                                         i2u88_41 1E5E  
                                       __Hparam 0000                                         __Lparam 0000  
                                       ___fldiv 1452                                         ___flmul 1028  
                                       ___fltol 17EC                                       ?_vfprintf 0016  
                                  __psmallconst 1000                                         __pcinit 1E92  
                                       __ramtop 1000                                         __ptext0 18F2  
                                       __ptext1 1F1C                                         __ptext2 19C2  
                                       __ptext3 17EC                                         __ptext4 1028  
                                       __ptext5 1452                                         __ptext6 1EB8  
                                       __ptext7 1D80                                         __ptext8 1BE8  
                                       __ptext9 1B52                           _OSCILLATOR_Initialize 1F0A  
                                     _T2CONbits 000FCA                              _EUSART1_Initialize 1C66  
                      ??_PIN_MANAGER_Initialize 0005                   ??_EUSART1_DefaultErrorHandler 0001  
                          end_of_initialization 1EAA                             ?_EUSART1_Initialize 0001  
                                       fputc@fp 0009                                   __Lmediumconst 0000  
                   _EUSART1_OverrunErrorHandler 009F                                   ??_ecranAllume 0006  
                             __end_of_videecran 1F2A           __end_of_EUSART1_SetRxInterruptHandler 1F64  
                 _EUSART1_SetRxInterruptHandler 1F5A                               __end_of_vfpfcnvrt 1C66  
                                       postdec2 000FDD                                         postinc0 000FEE  
                                       postinc1 000FE6                                         postinc2 000FDE  
                                    ??_vfprintf 001C                            ??_EUSART1_Initialize 0007  
                       fp__EUSART1_Transmit_ISR 0000                                     ___fldiv@grs 0018  
                                   ___fldiv@rem 0011                             EUSART1_Write@txData 0005  
                                   ___flmul@grs 002C                                    _EUSART1_Read 1D30  
                  __end_of_INTERRUPT_Initialize 1F92                             __end_of_ecranAllume 1F38  
                                   vfpfcnvrt@ap 0014                                     vfpfcnvrt@fp 0010  
                            _PWM2_LoadDutyValue 1E0E                          ?_OSCILLATOR_Initialize 0001  
                                __end_of_printf 1EDE                             start_initialization 1E92  
                           ?_PWM2_LoadDutyValue 0043   EUSART1_SetRxInterruptHandler@interruptHandler 0005  
 EUSART1_SetTxInterruptHandler@interruptHandler 0005                                     putch@txData 0006  
                         __end_of_EUSART1_Write 1D30                          fp__EUSART1_Receive_ISR 0000  
                          ??_PWM2_LoadDutyValue 0045                                     vfprintf@fmt 0018  
                   PWM2_LoadDutyValue@dutyValue 0043                           _EUSART1_RxDataHandler 1E40  
                                   _CCPTMRSbits 000F99                  ?_EUSART1_SetRxInterruptHandler 0005  
                                      ??_printf 0020                                  _eusart1RxCount 004D  
                                     ___fldiv@a 0009                                       ___fldiv@b 0005  
                                     ___flmul@a 0022                                       ___flmul@b 001E  
                                   __pbssCOMRAM 0047               _EUSART1_RxDefaultInterruptHandler 0054  
                                 __pcstackBANK0 0098                 ??_EUSART1_SetTxInterruptHandler 0007  
              ??_EUSART1_SetFramingErrorHandler 0007                 ?_EUSART1_SetFramingErrorHandler 0005  
                                     __pnvBANK0 009D                                     _ecranAllume 1F2A  
                        _PIN_MANAGER_Initialize 1E6A                                       __pintcode 0008  
                                      ?___fldiv 0005                                        ?___flmul 001E  
                                      ?___fltol 0005                    ??_INTERRUPT_InterruptManager 0001  
                                   __smallconst 1000                                        _BAUDCON1 000FA7  
         fp__EUSART1_DefaultOverrunErrorHandler 0000      __end_of_EUSART1_DefaultOverrunErrorHandler 1F88  
          ??_EUSART1_DefaultOverrunErrorHandler 0001             ?_EUSART1_DefaultOverrunErrorHandler 0001  
            _EUSART1_DefaultOverrunErrorHandler 1F82                            _EUSART1_ErrorHandler 009D  
                       _EUSART1_SetErrorHandler 1F78                            _INTERRUPT_Initialize 1F8E  
                                 ?_trouver_CPPR 0037                               ??_PWM2_Initialize 0005  
       EUSART1_SetErrorHandler@interruptHandler 0005                                        _PIE1bits 000F9D  
                                      i2u142_40 1DDE                                        i2u150_40 0028  
                                      i2u142_41 1DDA                                        i2u150_41 0024  
                                      i2u143_40 1E00                                        i2u151_40 0036  
                                      i2u143_41 1DFC                                        i2u151_41 0032  
                                      i2u144_40 1AAE                                        i2u152_40 0044  
                                      i2u144_41 1AAA                                        i2u152_41 0040  
                                      i2u146_40 1AE6                                        i2u145_48 1AC4  
                                      i2u154_40 0070                                        i2u153_48 004A  
                                      i2u146_41 1AE2                                        i2u145_49 1AD8  
                                      i2u154_41 006C                                        i2u153_49 005E  
                                      i2u155_40 007E                                        i2u155_41 007A  
                                      i2u148_40 1B2C                                        i2u147_48 1AFC  
                                      i2u148_41 1B28                                        i2u147_49 1B10  
                                      i2u156_48 0084                                        i2u156_49 0098  
                                      i2u149_48 1B32                                        i2u149_49 1B48  
                                      _PIR1bits 000F9E                          ?_EUSART1_RxDataHandler 0001  
                                      _RCONbits 000FD0                                       _videecran 1F1C  
                                     _vfpfcnvrt 1BE8                                     _INTCON2bits 000FF1  
                         ?_INTERRUPT_Initialize 0001                                  ??_trouver_CPPR 003B  
                             ??_TMR2_Initialize 0005                           EUSART1_Read@readValue 0005  
         __end_of_EUSART1_SetTxInterruptHandler 1F5A                   _EUSART1_SetTxInterruptHandler 1F50  
                                      __Hrparam 0000                                      vfprintf@ap 001A  
                                      __Lrparam 0000                                      vfprintf@fp 0016  
                                    ?_videecran 0001                         ??_OSCILLATOR_Initialize 0005  
                                    ?_vfpfcnvrt 0010                       ??_EUSART1_SetErrorHandler 0007  
           __end_of_EUSART1_DefaultErrorHandler 1F8E                     _EUSART1_DefaultErrorHandler 1F88  
                                      __ptext10 1F46                                        __ptext11 1F2A  
                                      __ptext20 1F50                                        __ptext12 1CDA  
                                      __ptext21 1F5A                                        __ptext13 1EDE  
                                      __ptext30 1F82                                        __ptext22 1F64  
                                      __ptext14 1F38                                        __ptext31 1F92  
                                      __ptext23 1F6E                                        __ptext15 1EF8  
                                      __ptext32 1F88                                        __ptext24 1F78  
                                      __ptext16 1E6A                                        __ptext33 1E40  
                                      __ptext25 1E0E                                        __ptext17 1F0A  
                                      __ptext34 0000                                        __ptext26 1D30  
                                      __ptext18 1F8E                                        __ptext19 1C66  
                                      __ptext28 1DCE                                        __ptext29 1A90  
EUSART1_SetOverrunErrorHandler@interruptHandler 0005                                        isa$xinst 000000  
                                      int$flags 0059                                        _vfprintf 1D80  
            __end_of_INTERRUPT_InterruptManager 00B0                      _INTERRUPT_InterruptManager 0008  
                                     printf@fmt 001E                                        main@lire 009C  
                   _EUSART1_FramingErrorHandler 0052                             _EUSART1_Receive_ISR 1A90  
                                    _INTCONbits 000FF2                          ??_INTERRUPT_Initialize 0005  
                                      intlevel2 0000                            ?_EUSART1_Receive_ISR 0001  
                             _trouver_CPPR$1631 003F                         ?_PIN_MANAGER_Initialize 0001  
        __end_of_EUSART1_SetOverrunErrorHandler 1F6E                  _EUSART1_SetOverrunErrorHandler 1F64  
                                    _RCSTA1bits 000FAB                                    ?_ecranAllume 0001  
                  __end_of_EUSART1_Transmit_ISR 1E0E                                     ??_videecran 0006  
                                      printf@ap 0020  EUSART1_SetFramingErrorHandler@interruptHandler 0005  
                ?_EUSART1_SetTxInterruptHandler 0005                                     ??_vfpfcnvrt 0016  
                            _eusart1RxLastError 004C                            __end_of_trouver_CPPR 1A90  
                               _PWM2_Initialize 1EF8                           ??_EUSART1_Receive_ISR 0001  
                __end_of_PIN_MANAGER_Initialize 1E92                         ??_EUSART1_RxDataHandler 0001  
